 bufferutil

 Timestamp is 563e4847 (Sat Nov  7 13:51:51 2015)

 Preferred load address is 10000000

 Start         Length     Name                   Class
 0001:00000000 0000025fH .text                   CODE
 0001:00000260 00012827H .text$mn                CODE
 0002:00000000 00000120H .idata$5                DATA
 0002:00000120 00000004H .00cfg                  DATA
 0002:00000124 00000004H .CRT$XCA                DATA
 0002:00000128 00000004H .CRT$XCU                DATA
 0002:0000012c 00000004H .CRT$XCZ                DATA
 0002:00000130 00000004H .CRT$XIA                DATA
 0002:00000134 0000000cH .CRT$XIC                DATA
 0002:00000140 00000004H .CRT$XIZ                DATA
 0002:00000144 00000004H .CRT$XPA                DATA
 0002:00000148 00000008H .CRT$XPX                DATA
 0002:00000150 00000004H .CRT$XPXA               DATA
 0002:00000154 00000004H .CRT$XPZ                DATA
 0002:00000158 00000004H .CRT$XTA                DATA
 0002:0000015c 00000004H .CRT$XTZ                DATA
 0002:00000160 00000000H .gfids$x                DATA
 0002:00000160 00005df4H .rdata                  DATA
 0002:00005f54 0000012cH .rdata$r                DATA
 0002:00006080 0000000cH .rdata$sxdata           DATA
 0002:00006090 00000010H .rdata$zETW0            DATA
 0002:000060a0 00000077H .rdata$zETW1            DATA
 0002:00006117 0000002cH .rdata$zETW2            DATA
 0002:00006143 00000001H .rdata$zETW9            DATA
 0002:00006144 00000468H .rdata$zzzdbg           DATA
 0002:000065ac 00000004H .rtc$IAA                DATA
 0002:000065b0 00000004H .rtc$IZZ                DATA
 0002:000065b4 00000004H .rtc$TAA                DATA
 0002:000065b8 00000004H .rtc$TZZ                DATA
 0002:000065c0 0000049cH .xdata$x                DATA
 0002:00006a5c 00000020H .didat$2                DATA
 0002:00006a7c 00000020H .didat$3                DATA
 0002:00006a9c 00000128H .didat$4                DATA
 0002:00006bc4 000013ecH .didat$6                DATA
 0002:00007fb0 00000128H .didat$7                DATA
 0002:000080e0 00004568H .edata                  DATA
 0002:0000c648 00000028H .idata$2                DATA
 0002:0000c670 00000014H .idata$3                DATA
 0002:0000c684 00000120H .idata$4                DATA
 0002:0000c7a4 00000536H .idata$6                DATA
 0003:00000000 00000808H .data                   DATA
 0003:00000808 00000078H .data$r                 DATA
 0003:00000880 00000128H .didat$5                DATA
 0003:000009a8 00000934H .bss                    DATA
 0004:00000000 00000058H .rsrc$01                DATA
 0004:00000060 00000180H .rsrc$02                DATA

  Address         Publics by Value              Rva+Base       Lib:Object

 0000:00000000       __except_list              00000000     <absolute>
 0000:00000000       ___guard_fids_count        00000000     <absolute>
 0000:00000000       ___guard_fids_table        00000000     <absolute>
 0000:00000003       ___safe_se_handler_count   00000003     <absolute>
 0000:00000100       ___guard_flags             00000100     <absolute>
 0000:00000000       ___ImageBase               10000000     <linker-defined>
 0001:00000000       ?TraceLoggingRegister@__vcrt_trace_logging_provider@@YAJPBU_TlgProvider_t@1@PBU_GUID@@P6GX1KE_K2PAU_EVENT_FILTER_DESCRIPTOR@@PAX@Z4@Z 10001000 f i libvcruntime:telemetry.obj
 0001:0000005d       ?TraceLoggingSetInformation@__vcrt_trace_logging_provider@@YAJPBU_TlgProvider_t@1@W4_EVENT_INFO_CLASS@@PAXK@Z 1000105d f i libvcruntime:telemetry.obj
 0001:00000088       ?TraceLoggingUnregister@__vcrt_trace_logging_provider@@YAXPBU_TlgProvider_t@1@@Z 10001088 f i libvcruntime:telemetry.obj
 0001:000000a7       ?_TlgCreateSz@__vcrt_trace_logging_provider@@YAXPAU_EVENT_DATA_DESCRIPTOR@@PBD@Z 100010a7 f i libvcruntime:telemetry.obj
 0001:000000df       ?_TlgCreateWsz@__vcrt_trace_logging_provider@@YAXPAU_EVENT_DATA_DESCRIPTOR@@PB_W@Z 100010df f i libvcruntime:telemetry.obj
 0001:00000123       ?_TlgEnableCallback@__vcrt_trace_logging_provider@@YGXPBU_GUID@@KE_K1PAU_EVENT_FILTER_DESCRIPTOR@@PAX@Z 10001123 f i libvcruntime:telemetry.obj
 0001:0000019b       ?_TlgKeywordOn@__vcrt_trace_logging_provider@@YAEPBU_TlgProvider_t@1@_K@Z 1000119b f i libvcruntime:telemetry.obj
 0001:000001d7       ?_TlgWrite@__vcrt_trace_logging_provider@@YAJPBU_TlgProvider_t@1@PBXPBU_GUID@@2IPAU_EVENT_DATA_DESCRIPTOR@@@Z 100011d7 f i libvcruntime:telemetry.obj
 0001:00000260       ?max_semi_space_size@ResourceConstraints@v8@@QBEHXZ 10001260 f i bufferutil.obj
 0001:00000260       ?object_type@HeapObjectStatistics@v8@@QAEPBDXZ 10001260 f i bufferutil.obj
 0001:00000260       ?impl@StreamedSource@ScriptCompiler@v8@@QBEPAU1internal@3@XZ 10001260 f i bufferutil.obj
 0001:00000260       ?space_name@HeapSpaceStatistics@v8@@QAEPBDXZ 10001260 f i bufferutil.obj
 0001:00000260       ?Data@Contents@SharedArrayBuffer@v8@@QBEPAXXZ 10001260 f i bufferutil.obj
 0001:00000260       ??DUtf8Value@String@v8@@QBEPBDXZ 10001260 f i bufferutil.obj
 0001:00000260       ?GetIsolate@HandleScope@v8@@QBEPAVIsolate@2@XZ 10001260 f i bufferutil.obj
 0001:00000260       ??DUtf8Value@String@v8@@QAEPADXZ 10001260 f i bufferutil.obj
 0001:00000260       ?total_heap_size@HeapStatistics@v8@@QAEIXZ 10001260 f i bufferutil.obj
 0001:00000260       ??DValue@String@v8@@QAEPAGXZ 10001260 f i bufferutil.obj
 0001:00000260       ??DValue@String@v8@@QBEPBGXZ 10001260 f i bufferutil.obj
 0001:00000260       ?Data@Contents@ArrayBuffer@v8@@QBEPAXXZ 10001260 f i bufferutil.obj
 0001:00000270       ??0HandleScope@v8@@IAE@XZ  10001270 f i bufferutil.obj
 0001:00000280       ??1EscapableHandleScope@v8@@QAE@XZ 10001280 f i bufferutil.obj
 0001:00000290       ??4Value@v8@@QAEAAV01@$$QAV01@@Z 10001290 f i bufferutil.obj
 0001:00000290       ??4DataView@v8@@QAEAAV01@$$QAV01@@Z 10001290 f i bufferutil.obj
 0001:00000290       ??4String@v8@@QAEAAV01@ABV01@@Z 10001290 f i bufferutil.obj
 0001:00000290       ??4NumberObject@v8@@QAEAAV01@ABV01@@Z 10001290 f i bufferutil.obj
 0001:00000290       ??4Number@v8@@QAEAAV01@$$QAV01@@Z 10001290 f i bufferutil.obj
 0001:00000290       ??4BooleanObject@v8@@QAEAAV01@$$QAV01@@Z 10001290 f i bufferutil.obj
 0001:00000290       ??4Uint8ClampedArray@v8@@QAEAAV01@ABV01@@Z 10001290 f i bufferutil.obj
 0001:00000290       ??4Object@v8@@QAEAAV01@$$QAV01@@Z 10001290 f i bufferutil.obj
 0001:00000290       ??4StackTrace@v8@@QAEAAV01@ABV01@@Z 10001290 f i bufferutil.obj
 0001:00000290       ??4External@v8@@QAEAAV01@ABV01@@Z 10001290 f i bufferutil.obj
 0001:00000290       ??4UnboundScript@v8@@QAEAAV01@ABV01@@Z 10001290 f i bufferutil.obj
 0001:00000290       ??4FunctionTemplate@v8@@QAEAAV01@$$QAV01@@Z 10001290 f i bufferutil.obj
 0001:00000290       ??4Boolean@v8@@QAEAAV01@$$QAV01@@Z 10001290 f i bufferutil.obj
 0001:00000290       ??4Context@v8@@QAEAAV01@ABV01@@Z 10001290 f i bufferutil.obj
 0001:00000290       ??4Uint16Array@v8@@QAEAAV01@$$QAV01@@Z 10001290 f i bufferutil.obj
 0001:00000290       ??4ArrayBuffer@v8@@QAEAAV01@$$QAV01@@Z 10001290 f i bufferutil.obj
 0001:00000290       ??4ScriptCompiler@v8@@QAEAAV01@$$QAV01@@Z 10001290 f i bufferutil.obj
 0001:00000290       ??4Array@v8@@QAEAAV01@ABV01@@Z 10001290 f i bufferutil.obj
 0001:00000290       ??4ArrayBufferView@v8@@QAEAAV01@$$QAV01@@Z 10001290 f i bufferutil.obj
 0001:00000290       ??4Name@v8@@QAEAAV01@ABV01@@Z 10001290 f i bufferutil.obj
 0001:00000290       ??4Set@v8@@QAEAAV01@ABV01@@Z 10001290 f i bufferutil.obj
 0001:00000290       ??4Uint32Array@v8@@QAEAAV01@$$QAV01@@Z 10001290 f i bufferutil.obj
 0001:00000290       ??4Message@v8@@QAEAAV01@$$QAV01@@Z 10001290 f i bufferutil.obj
 0001:00000290       ??4External@v8@@QAEAAV01@$$QAV01@@Z 10001290 f i bufferutil.obj
 0001:00000290       ??4Float64Array@v8@@QAEAAV01@ABV01@@Z 10001290 f i bufferutil.obj
 0001:00000290       ??4AccessorSignature@v8@@QAEAAV01@ABV01@@Z 10001290 f i bufferutil.obj
 0001:00000290       ??4Allocator@ArrayBuffer@v8@@QAEAAV012@ABV012@@Z 10001290 f i bufferutil.obj
 0001:00000290       ??4Number@v8@@QAEAAV01@ABV01@@Z 10001290 f i bufferutil.obj
 0001:00000290       ??4Uint32@v8@@QAEAAV01@ABV01@@Z 10001290 f i bufferutil.obj
 0001:00000290       ??4Exception@v8@@QAEAAV01@$$QAV01@@Z 10001290 f i bufferutil.obj
 0001:00000290       ??4Int32Array@v8@@QAEAAV01@$$QAV01@@Z 10001290 f i bufferutil.obj
 0001:00000290       ??4RegExp@v8@@QAEAAV01@$$QAV01@@Z 10001290 f i bufferutil.obj
 0001:00000290       ??4Uint32@v8@@QAEAAV01@$$QAV01@@Z 10001290 f i bufferutil.obj
 0001:00000290       ??4RegExp@v8@@QAEAAV01@ABV01@@Z 10001290 f i bufferutil.obj
 0001:00000290       ??4Date@v8@@QAEAAV01@ABV01@@Z 10001290 f i bufferutil.obj
 0001:00000290       ??4Script@v8@@QAEAAV01@ABV01@@Z 10001290 f i bufferutil.obj
 0001:00000290       ??4TypeSwitch@v8@@QAEAAV01@ABV01@@Z 10001290 f i bufferutil.obj
 0001:00000290       ??4Boolean@v8@@QAEAAV01@ABV01@@Z 10001290 f i bufferutil.obj
 0001:00000290       ??4Date@v8@@QAEAAV01@$$QAV01@@Z 10001290 f i bufferutil.obj
 0001:00000290       ??4StackFrame@v8@@QAEAAV01@$$QAV01@@Z 10001290 f i bufferutil.obj
 0001:00000290       ??4Int8Array@v8@@QAEAAV01@$$QAV01@@Z 10001290 f i bufferutil.obj
 0001:00000290       ??4Primitive@v8@@QAEAAV01@$$QAV01@@Z 10001290 f i bufferutil.obj
 0001:00000290       ??4Integer@v8@@QAEAAV01@$$QAV01@@Z 10001290 f i bufferutil.obj
 0001:00000290       ??4ScriptCompiler@v8@@QAEAAV01@ABV01@@Z 10001290 f i bufferutil.obj
 0001:00000290       ??4JSON@v8@@QAEAAV01@$$QAV01@@Z 10001290 f i bufferutil.obj
 0001:00000290       ??4Promise@v8@@QAEAAV01@ABV01@@Z 10001290 f i bufferutil.obj
 0001:00000290       ??4ArrayBufferView@v8@@QAEAAV01@ABV01@@Z 10001290 f i bufferutil.obj
 0001:00000290       ??4BooleanObject@v8@@QAEAAV01@ABV01@@Z 10001290 f i bufferutil.obj
 0001:00000290       ??4Symbol@v8@@QAEAAV01@ABV01@@Z 10001290 f i bufferutil.obj
 0001:00000290       ??4TypedArray@v8@@QAEAAV01@ABV01@@Z 10001290 f i bufferutil.obj
 0001:00000290       ??4Signature@v8@@QAEAAV01@$$QAV01@@Z 10001290 f i bufferutil.obj
 0001:00000290       ??4Uint32Array@v8@@QAEAAV01@ABV01@@Z 10001290 f i bufferutil.obj
 0001:00000290       ??4Uint8Array@v8@@QAEAAV01@$$QAV01@@Z 10001290 f i bufferutil.obj
 0001:00000290       ??4Uint8Array@v8@@QAEAAV01@ABV01@@Z 10001290 f i bufferutil.obj
 0001:00000290       ??4AccessorSignature@v8@@QAEAAV01@$$QAV01@@Z 10001290 f i bufferutil.obj
 0001:00000290       ??4Map@v8@@QAEAAV01@$$QAV01@@Z 10001290 f i bufferutil.obj
 0001:00000290       ??4Uint16Array@v8@@QAEAAV01@ABV01@@Z 10001290 f i bufferutil.obj
 0001:00000290       ??4Int32@v8@@QAEAAV01@$$QAV01@@Z 10001290 f i bufferutil.obj
 0001:00000290       ??4Symbol@v8@@QAEAAV01@$$QAV01@@Z 10001290 f i bufferutil.obj
 0001:00000290       ??4ExternalResourceVisitor@v8@@QAEAAV01@ABV01@@Z 10001290 f i bufferutil.obj
 0001:00000290       ??4SymbolObject@v8@@QAEAAV01@$$QAV01@@Z 10001290 f i bufferutil.obj
 0001:00000290       ??4UnboundScript@v8@@QAEAAV01@$$QAV01@@Z 10001290 f i bufferutil.obj
 0001:00000290       ??4Int8Array@v8@@QAEAAV01@ABV01@@Z 10001290 f i bufferutil.obj
 0001:00000290       ??4Float64Array@v8@@QAEAAV01@$$QAV01@@Z 10001290 f i bufferutil.obj
 0001:00000290       ??4TypeSwitch@v8@@QAEAAV01@$$QAV01@@Z 10001290 f i bufferutil.obj
 0001:00000290       ??4NativeWeakMap@v8@@QAEAAV01@$$QAV01@@Z 10001290 f i bufferutil.obj
 0001:00000290       ??4Value@v8@@QAEAAV01@ABV01@@Z 10001290 f i bufferutil.obj
 0001:00000290       ??4ObjectTemplate@v8@@QAEAAV01@ABV01@@Z 10001290 f i bufferutil.obj
 0001:00000290       ??4Name@v8@@QAEAAV01@$$QAV01@@Z 10001290 f i bufferutil.obj
 0001:00000290       ??4StackTrace@v8@@QAEAAV01@$$QAV01@@Z 10001290 f i bufferutil.obj
 0001:00000290       ??4ArrayBuffer@v8@@QAEAAV01@ABV01@@Z 10001290 f i bufferutil.obj
 0001:00000290       ??4StackFrame@v8@@QAEAAV01@ABV01@@Z 10001290 f i bufferutil.obj
 0001:00000290       ??4StringObject@v8@@QAEAAV01@ABV01@@Z 10001290 f i bufferutil.obj
 0001:00000290       ??4Message@v8@@QAEAAV01@ABV01@@Z 10001290 f i bufferutil.obj
 0001:00000290       ??4Array@v8@@QAEAAV01@$$QAV01@@Z 10001290 f i bufferutil.obj
 0001:00000290       ??4Object@v8@@QAEAAV01@ABV01@@Z 10001290 f i bufferutil.obj
 0001:00000290       ??4Context@v8@@QAEAAV01@$$QAV01@@Z 10001290 f i bufferutil.obj
 0001:00000290       ??4JSON@v8@@QAEAAV01@ABV01@@Z 10001290 f i bufferutil.obj
 0001:00000290       ??4Data@v8@@QAEAAV01@$$QAV01@@Z 10001290 f i bufferutil.obj
 0001:00000290       ??4Function@v8@@QAEAAV01@$$QAV01@@Z 10001290 f i bufferutil.obj
 0001:00000290       ??4Map@v8@@QAEAAV01@ABV01@@Z 10001290 f i bufferutil.obj
 0001:00000290       ??4Template@v8@@QAEAAV01@ABV01@@Z 10001290 f i bufferutil.obj
 0001:00000290       ??4Resolver@Promise@v8@@QAEAAV012@ABV012@@Z 10001290 f i bufferutil.obj
 0001:00000290       ??4Function@v8@@QAEAAV01@ABV01@@Z 10001290 f i bufferutil.obj
 0001:00000290       ??4V8@v8@@QAEAAV01@$$QAV01@@Z 10001290 f i bufferutil.obj
 0001:00000290       ??4Exception@v8@@QAEAAV01@ABV01@@Z 10001290 f i bufferutil.obj
 0001:00000290       ??4Int16Array@v8@@QAEAAV01@ABV01@@Z 10001290 f i bufferutil.obj
 0001:00000290       ??4Int32@v8@@QAEAAV01@ABV01@@Z 10001290 f i bufferutil.obj
 0001:00000290       ??4Set@v8@@QAEAAV01@$$QAV01@@Z 10001290 f i bufferutil.obj
 0001:00000290       ??4Uint8ClampedArray@v8@@QAEAAV01@$$QAV01@@Z 10001290 f i bufferutil.obj
 0001:00000290       ??4TypedArray@v8@@QAEAAV01@$$QAV01@@Z 10001290 f i bufferutil.obj
 0001:00000290       ??4SymbolObject@v8@@QAEAAV01@ABV01@@Z 10001290 f i bufferutil.obj
 0001:00000290       ??4DataView@v8@@QAEAAV01@ABV01@@Z 10001290 f i bufferutil.obj
 0001:00000290       ??4Int16Array@v8@@QAEAAV01@$$QAV01@@Z 10001290 f i bufferutil.obj
 0001:00000290       ??4FunctionTemplate@v8@@QAEAAV01@ABV01@@Z 10001290 f i bufferutil.obj
 0001:00000290       ??4NativeWeakMap@v8@@QAEAAV01@ABV01@@Z 10001290 f i bufferutil.obj
 0001:00000290       ??4Resolver@Promise@v8@@QAEAAV012@$$QAV012@@Z 10001290 f i bufferutil.obj
 0001:00000290       ??4Primitive@v8@@QAEAAV01@ABV01@@Z 10001290 f i bufferutil.obj
 0001:00000290       ??4Float32Array@v8@@QAEAAV01@ABV01@@Z 10001290 f i bufferutil.obj
 0001:00000290       ??4SharedArrayBuffer@v8@@QAEAAV01@ABV01@@Z 10001290 f i bufferutil.obj
 0001:00000290       ??4Integer@v8@@QAEAAV01@ABV01@@Z 10001290 f i bufferutil.obj
 0001:00000290       ??4Signature@v8@@QAEAAV01@ABV01@@Z 10001290 f i bufferutil.obj
 0001:00000290       ??4Template@v8@@QAEAAV01@$$QAV01@@Z 10001290 f i bufferutil.obj
 0001:00000290       ??4SharedArrayBuffer@v8@@QAEAAV01@$$QAV01@@Z 10001290 f i bufferutil.obj
 0001:00000290       ??4PersistentHandleVisitor@v8@@QAEAAV01@ABV01@@Z 10001290 f i bufferutil.obj
 0001:00000290       ??4NumberObject@v8@@QAEAAV01@$$QAV01@@Z 10001290 f i bufferutil.obj
 0001:00000290       ??4StringObject@v8@@QAEAAV01@$$QAV01@@Z 10001290 f i bufferutil.obj
 0001:00000290       ??4Data@v8@@QAEAAV01@ABV01@@Z 10001290 f i bufferutil.obj
 0001:00000290       ??4ObjectTemplate@v8@@QAEAAV01@$$QAV01@@Z 10001290 f i bufferutil.obj
 0001:00000290       ??4Promise@v8@@QAEAAV01@$$QAV01@@Z 10001290 f i bufferutil.obj
 0001:00000290       ??4Script@v8@@QAEAAV01@$$QAV01@@Z 10001290 f i bufferutil.obj
 0001:00000290       ??4String@v8@@QAEAAV01@$$QAV01@@Z 10001290 f i bufferutil.obj
 0001:00000290       ??4Int32Array@v8@@QAEAAV01@ABV01@@Z 10001290 f i bufferutil.obj
 0001:00000290       ??4ExternalSourceStream@ScriptCompiler@v8@@QAEAAV012@ABV012@@Z 10001290 f i bufferutil.obj
 0001:00000290       ??4V8@v8@@QAEAAV01@ABV01@@Z 10001290 f i bufferutil.obj
 0001:00000290       ??4Float32Array@v8@@QAEAAV01@$$QAV01@@Z 10001290 f i bufferutil.obj
 0001:000002a0       ?GetId@Script@v8@@QAEHXZ   100012a0 f i bufferutil.obj
 0001:000002c0       ??0CachedData@ScriptCompiler@v8@@QAE@XZ 100012c0 f i bufferutil.obj
 0001:000002e0       ??1ExternalSourceStream@ScriptCompiler@v8@@UAE@XZ 100012e0 f i bufferutil.obj
 0001:000002f0       ??0ExternalSourceStream@ScriptCompiler@v8@@QAE@XZ 100012f0 f i bufferutil.obj
 0001:00000300       ??0ExternalSourceStream@ScriptCompiler@v8@@QAE@ABV012@@Z 10001300 f i bufferutil.obj
 0001:00000310       ??_EExternalSourceStream@ScriptCompiler@v8@@UAEPAXI@Z 10001310 f i bufferutil.obj
 0001:00000380       ??1ExternalStringResourceBase@String@v8@@UAE@XZ 10001380 f i bufferutil.obj
 0001:00000380       ??1ExternalStringResource@String@v8@@UAE@XZ 10001380 f i bufferutil.obj
 0001:00000380       ??1ExternalOneByteStringResource@String@v8@@UAE@XZ 10001380 f i bufferutil.obj
 0001:00000380       ??1ExternalOneByteStringResourceImpl@v8@@UAE@XZ 10001380 f i bufferutil.obj
 0001:00000390       ??0ExternalStringResourceBase@String@v8@@IAE@XZ 10001390 f i bufferutil.obj
 0001:000003a0       ?Dispose@ExternalStringResourceBase@String@v8@@MAEXXZ 100013a0 f i bufferutil.obj
 0001:000003b0       ??0ExternalOneByteStringResource@String@v8@@IAE@XZ 100013b0 f i bufferutil.obj
 0001:000003b0       ??0ExternalStringResource@String@v8@@IAE@XZ 100013b0 f i bufferutil.obj
 0001:000003c0       ?ByteLength@Contents@SharedArrayBuffer@v8@@QBEIXZ 100013c0 f i bufferutil.obj
 0001:000003c0       ?total_heap_size_executable@HeapStatistics@v8@@QAEIXZ 100013c0 f i bufferutil.obj
 0001:000003c0       ?object_sub_type@HeapObjectStatistics@v8@@QAEPBDXZ 100013c0 f i bufferutil.obj
 0001:000003c0       ?name@Extension@v8@@QBEPBDXZ 100013c0 f i bufferutil.obj
 0001:000003c0       ?data@ExternalOneByteStringResourceImpl@v8@@UBEPBDXZ 100013c0 f i bufferutil.obj
 0001:000003c0       ?space_size@HeapSpaceStatistics@v8@@QAEIXZ 100013c0 f i bufferutil.obj
 0001:000003c0       ?length@Utf8Value@String@v8@@QBEHXZ 100013c0 f i bufferutil.obj
 0001:000003c0       ?begin@ExtensionConfiguration@v8@@QBEPAPBDXZ 100013c0 f i bufferutil.obj
 0001:000003c0       ?length@Value@String@v8@@QBEHXZ 100013c0 f i bufferutil.obj
 0001:000003c0       ?max_old_space_size@ResourceConstraints@v8@@QBEHXZ 100013c0 f i bufferutil.obj
 0001:000003c0       ?ByteLength@Contents@ArrayBuffer@v8@@QBEIXZ 100013c0 f i bufferutil.obj
 0001:000003d0       ?InternalFieldCount@Object@v8@@SAHABV?$PersistentBase@VObject@v8@@@2@@Z 100013d0 f i bufferutil.obj
 0001:000003e0       ?GetAlignedPointerFromInternalField@Object@v8@@SAPAXABV?$PersistentBase@VObject@v8@@@2@H@Z 100013e0 f i bufferutil.obj
 0001:00000410       ?NewInstance@Function@v8@@QBE?AV?$MaybeLocal@VObject@v8@@@2@V?$Local@VContext@v8@@@2@@Z 10001410 f i bufferutil.obj
 0001:00000430       ??1Allocator@ArrayBuffer@v8@@UAE@XZ 10001430 f i bufferutil.obj
 0001:00000440       ??0Contents@SharedArrayBuffer@v8@@QAE@XZ 10001440 f i bufferutil.obj
 0001:00000440       ??0ExtensionConfiguration@v8@@QAE@XZ 10001440 f i bufferutil.obj
 0001:00000440       ??0Contents@ArrayBuffer@v8@@QAE@XZ 10001440 f i bufferutil.obj
 0001:00000450       ?SetIndexedPropertyHandler@ObjectTemplate@v8@@QAEXP6AXIABV?$PropertyCallbackInfo@VValue@v8@@@2@@ZP6AXIV?$Local@VValue@v8@@@2@0@ZP6AXIABV?$PropertyCallbackInfo@VInteger@v8@@@2@@ZP6AXIABV?$PropertyCallbackInfo@VBoolean@v8@@@2@@ZP6AXABV?$PropertyCallbackInfo@VArray@v8@@@2@@Z2@Z 10001450 f i bufferutil.obj
 0001:000004a0       ??0ExternalOneByteStringResourceImpl@v8@@QAE@XZ 100014a0 f i bufferutil.obj
 0001:000004c0       ??0ExternalOneByteStringResourceImpl@v8@@QAE@PBDI@Z 100014c0 f i bufferutil.obj
 0001:000004e0       ?length@ExternalOneByteStringResourceImpl@v8@@UBEIXZ 100014e0 f i bufferutil.obj
 0001:000004e0       ?object_count@HeapObjectStatistics@v8@@QAEIXZ 100014e0 f i bufferutil.obj
 0001:000004e0       ?source_length@Extension@v8@@QBEIXZ 100014e0 f i bufferutil.obj
 0001:000004e0       ?space_used_size@HeapSpaceStatistics@v8@@QAEIXZ 100014e0 f i bufferutil.obj
 0001:000004e0       ?max_executable_size@ResourceConstraints@v8@@QBEHXZ 100014e0 f i bufferutil.obj
 0001:000004e0       ?total_physical_size@HeapStatistics@v8@@QAEIXZ 100014e0 f i bufferutil.obj
 0001:000004f0       ??1Extension@v8@@UAE@XZ    100014f0 f i bufferutil.obj
 0001:00000500       ?GetNativeFunctionTemplate@Extension@v8@@UAE?AV?$Local@VFunctionTemplate@v8@@@2@PAVIsolate@2@V?$Local@VString@v8@@@2@@Z 10001500 f i bufferutil.obj
 0001:00000510       ?source@Extension@v8@@QBEPBVExternalOneByteStringResource@String@2@XZ 10001510 f i bufferutil.obj
 0001:00000520       ?dependency_count@Extension@v8@@QAEHXZ 10001520 f i bufferutil.obj
 0001:00000530       ?dependencies@Extension@v8@@QAEPAPBDXZ 10001530 f i bufferutil.obj
 0001:00000540       ?set_auto_enable@Extension@v8@@QAEX_N@Z 10001540 f i bufferutil.obj
 0001:00000550       ?auto_enable@Extension@v8@@QAE_NXZ 10001550 f i bufferutil.obj
 0001:00000560       ?set_max_semi_space_size@ResourceConstraints@v8@@QAEXH@Z 10001560 f i bufferutil.obj
 0001:00000570       ?set_max_old_space_size@ResourceConstraints@v8@@QAEXH@Z 10001570 f i bufferutil.obj
 0001:00000580       ?set_max_executable_size@ResourceConstraints@v8@@QAEXH@Z 10001580 f i bufferutil.obj
 0001:00000590       ?stack_limit@ResourceConstraints@v8@@QBEPAIXZ 10001590 f i bufferutil.obj
 0001:00000590       ?space_available_size@HeapSpaceStatistics@v8@@QAEIXZ 10001590 f i bufferutil.obj
 0001:00000590       ?total_available_size@HeapStatistics@v8@@QAEIXZ 10001590 f i bufferutil.obj
 0001:00000590       ?object_size@HeapObjectStatistics@v8@@QAEIXZ 10001590 f i bufferutil.obj
 0001:000005a0       ?set_stack_limit@ResourceConstraints@v8@@QAEXPAI@Z 100015a0 f i bufferutil.obj
 0001:000005b0       ?physical_space_size@HeapSpaceStatistics@v8@@QAEIXZ 100015b0 f i bufferutil.obj
 0001:000005b0       ?max_available_threads@ResourceConstraints@v8@@QBEHXZ 100015b0 f i bufferutil.obj
 0001:000005b0       ?used_heap_size@HeapStatistics@v8@@QAEIXZ 100015b0 f i bufferutil.obj
 0001:000005c0       ?set_max_available_threads@ResourceConstraints@v8@@QAEXH@Z 100015c0 f i bufferutil.obj
 0001:000005d0       ?heap_size_limit@HeapStatistics@v8@@QAEIXZ 100015d0 f i bufferutil.obj
 0001:000005d0       ?code_range_size@ResourceConstraints@v8@@QBEIXZ 100015d0 f i bufferutil.obj
 0001:000005e0       ?set_code_range_size@ResourceConstraints@v8@@QAEXI@Z 100015e0 f i bufferutil.obj
 0001:000005f0       ??1ExternalResourceVisitor@v8@@UAE@XZ 100015f0 f i bufferutil.obj
 0001:00000600       ?VisitExternalString@ExternalResourceVisitor@v8@@UAEXV?$Local@VString@v8@@@2@@Z 10001600 f i bufferutil.obj
 0001:00000610       ??1PersistentHandleVisitor@v8@@UAE@XZ 10001610 f i bufferutil.obj
 0001:00000620       ?VisitPersistentHandle@PersistentHandleVisitor@v8@@UAEXPAV?$Persistent@VValue@v8@@V?$NonCopyablePersistentTraits@VValue@v8@@@2@@2@G@Z 10001620 f i bufferutil.obj
 0001:00000630       ??0Scope@Isolate@v8@@QAE@PAV12@@Z 10001630 f i bufferutil.obj
 0001:00000650       ??1Scope@Isolate@v8@@QAE@XZ 10001650 f i bufferutil.obj
 0001:00000660       ?JSStackComparableAddress@TryCatch@v8@@SAPAXPAV12@@Z 10001660 f i bufferutil.obj
 0001:00000670       ??0ExtensionConfiguration@v8@@QAE@HQAPBD@Z 10001670 f i bufferutil.obj
 0001:00000690       ?end@ExtensionConfiguration@v8@@QBEPAPBDXZ 10001690 f i bufferutil.obj
 0001:000006a0       ??0Unlocker@v8@@QAE@PAVIsolate@1@@Z 100016a0 f i bufferutil.obj
 0001:000006c0       ??0Locker@v8@@QAE@PAVIsolate@1@@Z 100016c0 f i bufferutil.obj
 0001:000006e0       ?New@Boolean@v8@@SA?AV?$Local@VBoolean@v8@@@2@PAVIsolate@2@_N@Z 100016e0 f i bufferutil.obj
 0001:00000700       ?Set@Template@v8@@QAEXPAVIsolate@2@PBDV?$Local@VData@v8@@@2@@Z 10001700 f i bufferutil.obj
 0001:00000750       ?GetInternalField@Object@v8@@QAE?AV?$Local@VValue@v8@@@2@H@Z 10001750 f i bufferutil.obj
 0001:00000790       ?GetAlignedPointerFromInternalField@Object@v8@@QAEPAXH@Z 10001790 f i bufferutil.obj
 0001:000007b0       ?Cast@Symbol@v8@@SAPAV12@PAVValue@2@@Z 100017b0 f i bufferutil.obj
 0001:000007b0       ?Cast@Uint8ClampedArray@v8@@SAPAV12@PAVValue@2@@Z 100017b0 f i bufferutil.obj
 0001:000007b0       ?Cast@Uint32@v8@@SAPAV12@PAVValue@2@@Z 100017b0 f i bufferutil.obj
 0001:000007b0       ?Cast@Map@v8@@SAPAV12@PAVValue@2@@Z 100017b0 f i bufferutil.obj
 0001:000007b0       ?Cast@Promise@v8@@SAPAV12@PAVValue@2@@Z 100017b0 f i bufferutil.obj
 0001:000007b0       ?Cast@String@v8@@SAPAV12@PAVValue@2@@Z 100017b0 f i bufferutil.obj
 0001:000007b0       ?Cast@Uint32Array@v8@@SAPAV12@PAVValue@2@@Z 100017b0 f i bufferutil.obj
 0001:000007b0       ?Cast@Int32@v8@@SAPAV12@PAVValue@2@@Z 100017b0 f i bufferutil.obj
 0001:000007b0       ?Cast@Object@v8@@SAPAV12@PAVValue@2@@Z 100017b0 f i bufferutil.obj
 0001:000007b0       ?Cast@ArrayBuffer@v8@@SAPAV12@PAVValue@2@@Z 100017b0 f i bufferutil.obj
 0001:000007b0       ?Cast@Int32Array@v8@@SAPAV12@PAVValue@2@@Z 100017b0 f i bufferutil.obj
 0001:000007b0       ?Cast@External@v8@@SAPAV12@PAVValue@2@@Z 100017b0 f i bufferutil.obj
 0001:000007b0       ?Cast@Int16Array@v8@@SAPAV12@PAVValue@2@@Z 100017b0 f i bufferutil.obj
 0001:000007b0       ?Cast@DataView@v8@@SAPAV12@PAVValue@2@@Z 100017b0 f i bufferutil.obj
 0001:000007b0       ?Cast@SymbolObject@v8@@SAPAV12@PAVValue@2@@Z 100017b0 f i bufferutil.obj
 0001:000007b0       ?Cast@RegExp@v8@@SAPAV12@PAVValue@2@@Z 100017b0 f i bufferutil.obj
 0001:000007b0       ?Cast@Name@v8@@SAPAV12@PAVValue@2@@Z 100017b0 f i bufferutil.obj
 0001:000007b0       ?Cast@TypedArray@v8@@SAPAV12@PAVValue@2@@Z 100017b0 f i bufferutil.obj
 0001:000007b0       ?Cast@Int8Array@v8@@SAPAV12@PAVValue@2@@Z 100017b0 f i bufferutil.obj
 0001:000007b0       ?Cast@StringObject@v8@@SAPAV12@PAVValue@2@@Z 100017b0 f i bufferutil.obj
 0001:000007b0       ?Cast@Float64Array@v8@@SAPAV12@PAVValue@2@@Z 100017b0 f i bufferutil.obj
 0001:000007b0       ?Cast@Function@v8@@SAPAV12@PAVValue@2@@Z 100017b0 f i bufferutil.obj
 0001:000007b0       ?Cast@Number@v8@@SAPAV12@PAVValue@2@@Z 100017b0 f i bufferutil.obj
 0001:000007b0       ?Cast@ArrayBufferView@v8@@SAPAV12@PAVValue@2@@Z 100017b0 f i bufferutil.obj
 0001:000007b0       ?Cast@Uint16Array@v8@@SAPAV12@PAVValue@2@@Z 100017b0 f i bufferutil.obj
 0001:000007b0       ?Cast@Uint8Array@v8@@SAPAV12@PAVValue@2@@Z 100017b0 f i bufferutil.obj
 0001:000007b0       ?Cast@BooleanObject@v8@@SAPAV12@PAVValue@2@@Z 100017b0 f i bufferutil.obj
 0001:000007b0       ?Cast@Resolver@Promise@v8@@SAPAV123@PAVValue@3@@Z 100017b0 f i bufferutil.obj
 0001:000007b0       ?Cast@Boolean@v8@@SAPAV12@PAVValue@2@@Z 100017b0 f i bufferutil.obj
 0001:000007b0       ?Cast@Float32Array@v8@@SAPAV12@PAVValue@2@@Z 100017b0 f i bufferutil.obj
 0001:000007b0       ?Cast@SharedArrayBuffer@v8@@SAPAV12@PAVValue@2@@Z 100017b0 f i bufferutil.obj
 0001:000007b0       ?Cast@Date@v8@@SAPAV12@PAVValue@2@@Z 100017b0 f i bufferutil.obj
 0001:000007b0       ?Cast@Integer@v8@@SAPAV12@PAVValue@2@@Z 100017b0 f i bufferutil.obj
 0001:000007b0       ?Cast@Set@v8@@SAPAV12@PAVValue@2@@Z 100017b0 f i bufferutil.obj
 0001:000007b0       ?Cast@Array@v8@@SAPAV12@PAVValue@2@@Z 100017b0 f i bufferutil.obj
 0001:000007b0       ?Cast@NumberObject@v8@@SAPAV12@PAVValue@2@@Z 100017b0 f i bufferutil.obj
 0001:000007c0       ?Empty@String@v8@@SA?AV?$Local@VString@v8@@@2@PAVIsolate@2@@Z 100017c0 f i bufferutil.obj
 0001:000007d0       ?GetExternalStringResource@String@v8@@QBEPAVExternalStringResource@12@XZ 100017d0 f i bufferutil.obj
 0001:000007f0       ?GetExternalStringResourceBase@String@v8@@QBEPAVExternalStringResourceBase@12@PAW4Encoding@12@@Z 100017f0 f i bufferutil.obj
 0001:00000820       ?IsUndefined@Value@v8@@QBE_NXZ 10001820 f i bufferutil.obj
 0001:00000850       ?QuickIsUndefined@Value@v8@@ABE_NXZ 10001850 f i bufferutil.obj
 0001:00000880       ?IsNull@Value@v8@@QBE_NXZ  10001880 f i bufferutil.obj
 0001:000008b0       ?QuickIsNull@Value@v8@@ABE_NXZ 100018b0 f i bufferutil.obj
 0001:000008e0       ?IsString@Value@v8@@QBE_NXZ 100018e0 f i bufferutil.obj
 0001:00000910       ?QuickIsString@Value@v8@@ABE_NXZ 10001910 f i bufferutil.obj
 0001:00000940       ?ToBoolean@Value@v8@@QBE?AV?$Local@VBoolean@v8@@@2@XZ 10001940 f i bufferutil.obj
 0001:00000980       ?ToNumber@Value@v8@@QBE?AV?$Local@VNumber@v8@@@2@XZ 10001980 f i bufferutil.obj
 0001:000009c0       ?ToString@Value@v8@@QBE?AV?$Local@VString@v8@@@2@XZ 100019c0 f i bufferutil.obj
 0001:00000a00       ?ToDetailString@Value@v8@@QBE?AV?$Local@VString@v8@@@2@XZ 10001a00 f i bufferutil.obj
 0001:00000a40       ?ToObject@Value@v8@@QBE?AV?$Local@VObject@v8@@@2@XZ 10001a40 f i bufferutil.obj
 0001:00000a80       ?ToInteger@Value@v8@@QBE?AV?$Local@VInteger@v8@@@2@XZ 10001a80 f i bufferutil.obj
 0001:00000ac0       ?ToUint32@Value@v8@@QBE?AV?$Local@VUint32@v8@@@2@XZ 10001ac0 f i bufferutil.obj
 0001:00000b00       ?ToInt32@Value@v8@@QBE?AV?$Local@VInt32@v8@@@2@XZ 10001b00 f i bufferutil.obj
 0001:00000b40       ?SetData@Isolate@v8@@QAEXIPAX@Z 10001b40 f i bufferutil.obj
 0001:00000b50       ?GetData@Isolate@v8@@QAEPAXI@Z 10001b50 f i bufferutil.obj
 0001:00000b60       ?GetNumberOfDataSlots@Isolate@v8@@SAIXZ 10001b60 f i bufferutil.obj
 0001:00000b70       ?AdjustAmountOfExternalAllocatedMemory@Isolate@v8@@QAE_J_J@Z 10001b70 f i bufferutil.obj
 0001:00000bd0       ?GetEmbedderData@Context@v8@@QAE?AV?$Local@VValue@v8@@@2@H@Z 10001bd0 f i bufferutil.obj
 0001:00000c00       ?GetAlignedPointerFromEmbedderData@Context@v8@@QAEPAXH@Z 10001c00 f i bufferutil.obj
 0001:00000c20       ?SetAllowCodeGenerationFromStringsCallback@V8@v8@@SAXP6A_NV?$Local@VContext@v8@@@2@@Z@Z 10001c20 f i bufferutil.obj
 0001:00000c40       ?IsDead@V8@v8@@SA_NXZ      10001c40 f i bufferutil.obj
 0001:00000c50       ?AddMessageListener@V8@v8@@SA_NP6AXV?$Local@VMessage@v8@@@2@V?$Local@VValue@v8@@@2@@Z1@Z 10001c50 f i bufferutil.obj
 0001:00000c70       ?RemoveMessageListeners@V8@v8@@SAXP6AXV?$Local@VMessage@v8@@@2@V?$Local@VValue@v8@@@2@@Z@Z 10001c70 f i bufferutil.obj
 0001:00000c90       ?SetFailedAccessCheckCallbackFunction@V8@v8@@SAXP6AXV?$Local@VObject@v8@@@2@W4AccessType@2@V?$Local@VValue@v8@@@2@@Z@Z 10001c90 f i bufferutil.obj
 0001:00000cb0       ?SetCaptureStackTraceForUncaughtExceptions@V8@v8@@SAX_NHW4StackTraceOptions@StackTrace@2@@Z 10001cb0 f i bufferutil.obj
 0001:00000cd0       ?SetFatalErrorHandler@V8@v8@@SAXP6AXPBD0@Z@Z 10001cd0 f i bufferutil.obj
 0001:00000cf0       ?RemoveGCPrologueCallback@V8@v8@@SAXP6AXW4GCType@2@W4GCCallbackFlags@2@@Z@Z 10001cf0 f i bufferutil.obj
 0001:00000d10       ?RemoveGCEpilogueCallback@V8@v8@@SAXP6AXW4GCType@2@W4GCCallbackFlags@2@@Z@Z 10001d10 f i bufferutil.obj
 0001:00000d30       ?AddMemoryAllocationCallback@V8@v8@@SAXP6AXW4ObjectSpace@2@W4AllocationAction@2@H@Z01@Z 10001d30 f i bufferutil.obj
 0001:00000d50       ?RemoveMemoryAllocationCallback@V8@v8@@SAXP6AXW4ObjectSpace@2@W4AllocationAction@2@H@Z@Z 10001d50 f i bufferutil.obj
 0001:00000d70       ?TerminateExecution@V8@v8@@SAXPAVIsolate@2@@Z 10001d70 f i bufferutil.obj
 0001:00000d80       ?IsExecutionTerminating@V8@v8@@SA_NPAVIsolate@2@@Z 10001d80 f i bufferutil.obj
 0001:00000da0       ?CancelTerminateExecution@V8@v8@@SAXPAVIsolate@2@@Z 10001da0 f i bufferutil.obj
 0001:00000db0       ?VisitExternalResources@V8@v8@@SAXPAVExternalResourceVisitor@2@@Z 10001db0 f i bufferutil.obj
 0001:00000dd0       ?VisitHandlesWithClassIds@V8@v8@@SAXPAVPersistentHandleVisitor@2@@Z 10001dd0 f i bufferutil.obj
 0001:00000df0       ?VisitHandlesWithClassIds@V8@v8@@SAXPAVIsolate@2@PAVPersistentHandleVisitor@2@@Z 10001df0 f i bufferutil.obj
 0001:00000e00       ?VisitHandlesForPartialDependence@V8@v8@@SAXPAVIsolate@2@PAVPersistentHandleVisitor@2@@Z 10001e00 f i bufferutil.obj
 0001:00000e10       ??_EExternalStringResourceBase@String@v8@@UAEPAXI@Z 10001e10 f i bufferutil.obj
 0001:00000e10       ??_EExternalStringResource@String@v8@@UAEPAXI@Z 10001e10 f i bufferutil.obj
 0001:00000e10       ??_EExternalOneByteStringResource@String@v8@@UAEPAXI@Z 10001e10 f i bufferutil.obj
 0001:00000e80       ??0Allocator@ArrayBuffer@v8@@QAE@XZ 10001e80 f i bufferutil.obj
 0001:00000e90       ??0Allocator@ArrayBuffer@v8@@QAE@ABV012@@Z 10001e90 f i bufferutil.obj
 0001:00000ea0       ??_EAllocator@ArrayBuffer@v8@@UAEPAXI@Z 10001ea0 f i bufferutil.obj
 0001:00000f10       ??4StartupData@v8@@QAEAAV01@ABV01@@Z 10001f10 f i bufferutil.obj
 0001:00000f10       ??4Contents@SharedArrayBuffer@v8@@QAEAAV012@ABV012@@Z 10001f10 f i bufferutil.obj
 0001:00000f10       ??4StartupData@v8@@QAEAAV01@$$QAV01@@Z 10001f10 f i bufferutil.obj
 0001:00000f10       ??4Contents@ArrayBuffer@v8@@QAEAAV012@ABV012@@Z 10001f10 f i bufferutil.obj
 0001:00000f10       ??4Contents@ArrayBuffer@v8@@QAEAAV012@$$QAV012@@Z 10001f10 f i bufferutil.obj
 0001:00000f10       ??4Contents@SharedArrayBuffer@v8@@QAEAAV012@$$QAV012@@Z 10001f10 f i bufferutil.obj
 0001:00000f30       ??_EExternalOneByteStringResourceImpl@v8@@UAEPAXI@Z 10001f30 f i bufferutil.obj
 0001:00000fa0       ??_EExtension@v8@@UAEPAXI@Z 10001fa0 f i bufferutil.obj
 0001:00001020       ??4HeapStatistics@v8@@QAEAAV01@ABV01@@Z 10002020 f i bufferutil.obj
 0001:00001020       ??4ResourceConstraints@v8@@QAEAAV01@ABV01@@Z 10002020 f i bufferutil.obj
 0001:00001040       ??4ResourceConstraints@v8@@QAEAAV01@$$QAV01@@Z 10002040 f i bufferutil.obj
 0001:00001040       ??4HeapStatistics@v8@@QAEAAV01@$$QAV01@@Z 10002040 f i bufferutil.obj
 0001:00001070       ??4HeapSpaceStatistics@v8@@QAEAAV01@ABV01@@Z 10002070 f i bufferutil.obj
 0001:00001090       ??4HeapSpaceStatistics@v8@@QAEAAV01@$$QAV01@@Z 10002090 f i bufferutil.obj
 0001:000010c0       ??4HeapObjectStatistics@v8@@QAEAAV01@ABV01@@Z 100020c0 f i bufferutil.obj
 0001:000010d0       ??4HeapObjectStatistics@v8@@QAEAAV01@$$QAV01@@Z 100020d0 f i bufferutil.obj
 0001:000010f0       ??0ExternalResourceVisitor@v8@@QAE@XZ 100020f0 f i bufferutil.obj
 0001:00001100       ??0ExternalResourceVisitor@v8@@QAE@ABV01@@Z 10002100 f i bufferutil.obj
 0001:00001110       ??_EExternalResourceVisitor@v8@@UAEPAXI@Z 10002110 f i bufferutil.obj
 0001:00001180       ??0PersistentHandleVisitor@v8@@QAE@XZ 10002180 f i bufferutil.obj
 0001:00001190       ??0PersistentHandleVisitor@v8@@QAE@ABV01@@Z 10002190 f i bufferutil.obj
 0001:000011a0       ??_EPersistentHandleVisitor@v8@@UAEPAXI@Z 100021a0 f i bufferutil.obj
 0001:00001210       ??4Unlocker@v8@@QAEAAV01@ABV01@@Z 10002210 f i bufferutil.obj
 0001:00001220       ?Wrap@ObjectWrap@node@@IAEXV?$Local@VObject@v8@@@v8@@@Z 10002220 f i bufferutil.obj
 0001:000012d0       ?Ref@ObjectWrap@node@@MAEXXZ 100022d0 f i bufferutil.obj
 0001:00001300       ?Unref@ObjectWrap@node@@MAEXXZ 10002300 f i bufferutil.obj
 0001:00001390       ?WeakCallback@ObjectWrap@node@@CAXABV?$WeakCallbackData@VObject@v8@@VObjectWrap@node@@@v8@@@Z 10002390 f i bufferutil.obj
 0001:00001460       ??_EBufferUtil@@UAEPAXI@Z  10002460 f i * CIL library *:* CIL module *
 0001:00001460       ??_EObjectWrap@node@@UAEPAXI@Z 10002460 f i * CIL library *:* CIL module *
 0001:00001460       ??_GBufferUtil@@UAEPAXI@Z  10002460 f i bufferutil.obj
 0001:00001460       ??_GObjectWrap@node@@UAEPAXI@Z 10002460 f i bufferutil.obj
 0001:00001580       ?New@?$Factory@VFunctionTemplate@v8@@@imp@Nan@@SA?AV?$Local@VFunctionTemplate@v8@@@v8@@P6AXABV?$FunctionCallbackInfo@VValue@v8@@@3@@ZV?$Local@VValue@v8@@@5@V?$Local@VSignature@v8@@@5@@Z 10002580 f i bufferutil.obj
 0001:000016a0       ?Initialize@BufferUtil@@SAXV?$Local@VObject@v8@@@v8@@@Z 100026a0 f i bufferutil.obj
 0001:00001960       ?New@BufferUtil@@KAXABV?$FunctionCallbackInfo@VValue@v8@@@Nan@@@Z 10002960 f i bufferutil.obj
 0001:000019f0       ?Merge@BufferUtil@@KAXABV?$FunctionCallbackInfo@VValue@v8@@@Nan@@@Z 100029f0 f i bufferutil.obj
 0001:00001b40       ?Unmask@BufferUtil@@KAXABV?$FunctionCallbackInfo@VValue@v8@@@Nan@@@Z 10002b40 f i bufferutil.obj
 0001:00001cc0       ?Mask@BufferUtil@@KAXABV?$FunctionCallbackInfo@VValue@v8@@@Nan@@@Z 10002cc0 f i bufferutil.obj
 0001:00001f20       ?init@@YAXV?$Local@VObject@v8@@@v8@@@Z 10002f20 f   bufferutil.obj
 0001:00001fab       __imp_load_?Value@External@v8@@QBEPAXXZ 10002fab f   node:node.exe
 0001:00001fb5       __tailMerge_node_exe       10002fb5 f i node:node.exe
 0001:00001fc6       __imp_load_?New@External@v8@@SA?AV?$Local@VExternal@v8@@@2@PAVIsolate@2@PAX@Z 10002fc6 f   node:node.exe
 0001:00001fd0       __imp_load_?CollectAllGarbage@Isolate@v8@@AAEXPBD@Z 10002fd0 f   node:node.exe
 0001:00001fda       __imp_load_?VisitHandlesForPartialDependence@Isolate@v8@@QAEXPAVPersistentHandleVisitor@2@@Z 10002fda f   node:node.exe
 0001:00001fe4       __imp_load_?VisitHandlesWithClassIds@Isolate@v8@@QAEXPAVPersistentHandleVisitor@2@@Z 10002fe4 f   node:node.exe
 0001:00001fee       __imp_load_?VisitExternalResources@Isolate@v8@@QAEXPAVExternalResourceVisitor@2@@Z 10002fee f   node:node.exe
 0001:00001ff8       __imp_load_?RemoveMemoryAllocationCallback@Isolate@v8@@QAEXP6AXW4ObjectSpace@2@W4AllocationAction@2@H@Z@Z 10002ff8 f   node:node.exe
 0001:00002002       __imp_load_?AddMemoryAllocationCallback@Isolate@v8@@QAEXP6AXW4ObjectSpace@2@W4AllocationAction@2@H@Z01@Z 10003002 f   node:node.exe
 0001:0000200c       __imp_load_?SetCaptureStackTraceForUncaughtExceptions@Isolate@v8@@QAEX_NHW4StackTraceOptions@StackTrace@2@@Z 1000300c f   node:node.exe
 0001:00002016       __imp_load_?SetFailedAccessCheckCallbackFunction@Isolate@v8@@QAEXP6AXV?$Local@VObject@v8@@@2@W4AccessType@2@V?$Local@VValue@v8@@@2@@Z@Z 10003016 f   node:node.exe
 0001:00002020       __imp_load_?RemoveMessageListeners@Isolate@v8@@QAEXP6AXV?$Local@VMessage@v8@@@2@V?$Local@VValue@v8@@@2@@Z@Z 10003020 f   node:node.exe
 0001:0000202a       __imp_load_?AddMessageListener@Isolate@v8@@QAE_NP6AXV?$Local@VMessage@v8@@@2@V?$Local@VValue@v8@@@2@@Z1@Z 1000302a f   node:node.exe
 0001:00002034       __imp_load_?IsDead@Isolate@v8@@QAE_NXZ 10003034 f   node:node.exe
 0001:0000203e       __imp_load_?SetAllowCodeGenerationFromStringsCallback@Isolate@v8@@QAEXP6A_NV?$Local@VContext@v8@@@2@@Z@Z 1000303e f   node:node.exe
 0001:00002048       __imp_load_?SetFatalErrorHandler@Isolate@v8@@QAEXP6AXPBD0@Z@Z 10003048 f   node:node.exe
 0001:00002052       __imp_load_?CancelTerminateExecution@Isolate@v8@@QAEXXZ 10003052 f   node:node.exe
 0001:0000205c       __imp_load_?IsExecutionTerminating@Isolate@v8@@QAE_NXZ 1000305c f   node:node.exe
 0001:00002066       __imp_load_?TerminateExecution@Isolate@v8@@QAEXXZ 10003066 f   node:node.exe
 0001:00002070       __imp_load_?RemoveGCEpilogueCallback@Isolate@v8@@QAEXP6AXPAV12@W4GCType@2@W4GCCallbackFlags@2@@Z@Z 10003070 f   node:node.exe
 0001:0000207a       __imp_load_?RemoveGCPrologueCallback@Isolate@v8@@QAEXP6AXPAV12@W4GCType@2@W4GCCallbackFlags@2@@Z@Z 1000307a f   node:node.exe
 0001:00002084       __imp_load_?GetCurrentContext@Isolate@v8@@QAE?AV?$Local@VContext@v8@@@2@XZ 10003084 f   node:node.exe
 0001:0000208e       __imp_load_?Exit@Isolate@v8@@QAEXXZ 1000308e f   node:node.exe
 0001:00002098       __imp_load_?Enter@Isolate@v8@@QAEXXZ 10003098 f   node:node.exe
 0001:000020a2       __imp_load_?GetCurrent@Isolate@v8@@SAPAV12@XZ 100030a2 f   node:node.exe
 0001:000020ac       __imp_load_?ResetToBookmark@ExternalSourceStream@ScriptCompiler@v8@@UAEXXZ 100030ac f   node:node.exe
 0001:000020b6       ?ResetToBookmark@ExternalSourceStream@ScriptCompiler@v8@@UAEXXZ 100030b6 f   node:node.exe
 0001:000020bc       __imp_load_?SetBookmark@ExternalSourceStream@ScriptCompiler@v8@@UAE_NXZ 100030bc f   node:node.exe
 0001:000020c6       ?SetBookmark@ExternalSourceStream@ScriptCompiler@v8@@UAE_NXZ 100030c6 f   node:node.exe
 0001:000020cc       __imp_load_?CreateHandle@HandleScope@v8@@KAPAPAVObject@internal@2@PAVIsolate@42@PAV342@@Z 100030cc f   node:node.exe
 0001:000020d6       __imp_load_?CreateHandle@HandleScope@v8@@CAPAPAVObject@internal@2@PAVHeapObject@42@PAV342@@Z 100030d6 f   node:node.exe
 0001:000020e0       __imp_load_??1HandleScope@v8@@QAE@XZ 100030e0 f   node:node.exe
 0001:000020ea       __imp_load_??0HandleScope@v8@@QAE@PAVIsolate@1@@Z 100030ea f   node:node.exe
 0001:000020f4       __imp_load_?Set@Template@v8@@QAEXV?$Local@VName@v8@@@2@V?$Local@VData@v8@@@2@W4PropertyAttribute@2@@Z 100030f4 f   node:node.exe
 0001:000020fe       __imp_load_?Initialize@Locker@v8@@AAEXPAVIsolate@2@@Z 100030fe f   node:node.exe
 0001:00002108       __imp_load_?Length@Array@v8@@QBEIXZ 10003108 f   node:node.exe
 0001:00002112       __imp_load_?GetId@UnboundScript@v8@@QAEHXZ 10003112 f   node:node.exe
 0001:0000211c       __imp_load_?Initialize@Unlocker@v8@@AAEXPAVIsolate@2@@Z 1000311c f   node:node.exe
 0001:00002126       __imp_load_?InstanceTemplate@FunctionTemplate@v8@@QAE?AV?$Local@VObjectTemplate@v8@@@2@XZ 10003126 f   node:node.exe
 0001:00002130       __imp_load_?GetFunction@FunctionTemplate@v8@@QAE?AV?$Local@VFunction@v8@@@2@XZ 10003130 f   node:node.exe
 0001:0000213a       __imp_load_?GetFunction@FunctionTemplate@v8@@QAE?AV?$MaybeLocal@VFunction@v8@@@2@V?$Local@VContext@v8@@@2@@Z 1000313a f   node:node.exe
 0001:00002144       __imp_load_?New@FunctionTemplate@v8@@SA?AV?$Local@VFunctionTemplate@v8@@@2@PAVIsolate@2@P6AXABV?$FunctionCallbackInfo@VValue@v8@@@2@@ZV?$Local@VValue@v8@@@2@V?$Local@VSignature@v8@@@2@H@Z 10003144 f   node:node.exe
 0001:0000214e       __imp_load_?ToLocalEmpty@V8@v8@@CAXXZ 1000314e f   node:node.exe
 0001:00002158       __imp_load_?ClearWeak@V8@v8@@CAPAXPAPAVObject@internal@2@@Z 10003158 f   node:node.exe
 0001:00002162       __imp_load_?MakeWeak@V8@v8@@CAXPAPAVObject@internal@2@PAXP6AXABV?$WeakCallbackData@VValue@v8@@X@2@@Z@Z 10003162 f   node:node.exe
 0001:0000216c       __imp_load_?DisposeGlobal@V8@v8@@CAXPAPAVObject@internal@2@@Z 1000316c f   node:node.exe
 0001:00002176       __imp_load_?GlobalizeReference@V8@v8@@CAPAPAVObject@internal@2@PAVIsolate@42@PAPAV342@@Z 10003176 f   node:node.exe
 0001:00002180       __imp_load_?Int32Value@Value@v8@@QBEHXZ 10003180 f   node:node.exe
 0001:0000218a       __imp_load_?ToInt32@Value@v8@@QBE?AV?$MaybeLocal@VInt32@v8@@@2@V?$Local@VContext@v8@@@2@@Z 1000318a f   node:node.exe
 0001:00002194       __imp_load_?ToUint32@Value@v8@@QBE?AV?$MaybeLocal@VUint32@v8@@@2@V?$Local@VContext@v8@@@2@@Z 10003194 f   node:node.exe
 0001:0000219e       __imp_load_?ToInteger@Value@v8@@QBE?AV?$MaybeLocal@VInteger@v8@@@2@V?$Local@VContext@v8@@@2@@Z 1000319e f   node:node.exe
 0001:000021a8       __imp_load_?ToObject@Value@v8@@QBE?AV?$MaybeLocal@VObject@v8@@@2@V?$Local@VContext@v8@@@2@@Z 100031a8 f   node:node.exe
 0001:000021b2       __imp_load_?ToDetailString@Value@v8@@QBE?AV?$MaybeLocal@VString@v8@@@2@V?$Local@VContext@v8@@@2@@Z 100031b2 f   node:node.exe
 0001:000021bc       __imp_load_?ToString@Value@v8@@QBE?AV?$MaybeLocal@VString@v8@@@2@V?$Local@VContext@v8@@@2@@Z 100031bc f   node:node.exe
 0001:000021c6       __imp_load_?ToNumber@Value@v8@@QBE?AV?$MaybeLocal@VNumber@v8@@@2@V?$Local@VContext@v8@@@2@@Z 100031c6 f   node:node.exe
 0001:000021d0       __imp_load_?ToBoolean@Value@v8@@QBE?AV?$MaybeLocal@VBoolean@v8@@@2@V?$Local@VContext@v8@@@2@@Z 100031d0 f   node:node.exe
 0001:000021da       __imp_load_?Escape@EscapableHandleScope@v8@@AAEPAPAVObject@internal@2@PAPAV342@@Z 100031da f   node:node.exe
 0001:000021e4       __imp_load_??0EscapableHandleScope@v8@@QAE@PAVIsolate@1@@Z 100031e4 f   node:node.exe
 0001:000021ee       __imp_load_?GetUnboundScript@Script@v8@@QAE?AV?$Local@VUnboundScript@v8@@@2@XZ 100031ee f   node:node.exe
 0001:000021f8       __imp_load_?NewFromUtf8@String@v8@@SA?AV?$MaybeLocal@VString@v8@@@2@PAVIsolate@2@PBDW4NewStringType@2@H@Z 100031f8 f   node:node.exe
 0001:00002202       __imp_load_?SlowGetAlignedPointerFromInternalField@Object@v8@@AAEPAXH@Z 10003202 f   node:node.exe
 0001:0000220c       __imp_load_?SlowGetInternalField@Object@v8@@AAE?AV?$Local@VValue@v8@@@2@H@Z 1000320c f   node:node.exe
 0001:00002216       __imp_load_?SetAlignedPointerInInternalField@Object@v8@@QAEXHPAX@Z 10003216 f   node:node.exe
 0001:00002220       __imp_load_?SetInternalField@Object@v8@@QAEXHV?$Local@VValue@v8@@@2@@Z 10003220 f   node:node.exe
 0001:0000222a       __imp_load_?InternalFieldCount@Object@v8@@QAEHXZ 1000322a f   node:node.exe
 0001:00002234       __imp_load_?Get@Object@v8@@QAE?AV?$Local@VValue@v8@@@2@I@Z 10003234 f   node:node.exe
 0001:0000223e       __imp_load_?Set@Object@v8@@QAE?AV?$Maybe@_N@2@V?$Local@VContext@v8@@@2@V?$Local@VValue@v8@@@2@1@Z 1000323e f   node:node.exe
 0001:00002248       __imp_load_?SetName@Function@v8@@QAEXV?$Local@VString@v8@@@2@@Z 10003248 f   node:node.exe
 0001:00002252       __imp_load_?NewInstance@Function@v8@@QBE?AV?$MaybeLocal@VObject@v8@@@2@V?$Local@VContext@v8@@@2@HQAV?$Local@VValue@v8@@@2@@Z 10003252 f   node:node.exe
 0001:0000225c       __imp_load_?SetInternalFieldCount@ObjectTemplate@v8@@QAEXH@Z 1000325c f   node:node.exe
 0001:00002266       __imp_load_?SetHandler@ObjectTemplate@v8@@QAEXABUIndexedPropertyHandlerConfiguration@2@@Z 10003266 f   node:node.exe
 0001:00002270       __imp_load_?NewInstance@ObjectTemplate@v8@@QAE?AV?$MaybeLocal@VObject@v8@@@2@V?$Local@VContext@v8@@@2@@Z 10003270 f   node:node.exe
 0001:0000227a       __imp_load_?New@ObjectTemplate@v8@@SA?AV?$Local@VObjectTemplate@v8@@@2@PAVIsolate@2@V?$Local@VFunctionTemplate@v8@@@2@@Z 1000327a f   node:node.exe
 0001:00002284       __imp_load__node_module_register 10003284 f   node:node.exe
 0001:0000228e       __imp_load_?Data@Buffer@node@@YAPADV?$Local@VObject@v8@@@v8@@@Z 1000328e f   node:node.exe
 0001:00002298       __imp_load_?Length@Buffer@node@@YAIV?$Local@VObject@v8@@@v8@@@Z 10003298 f   node:node.exe
 0001:000022a2       @__security_check_cookie@4 100032a2 f   LIBCMT:_secchk_.obj
 0001:000022b3       ??_V@YAXPAX@Z              100032b3 f   LIBCMT:delete_array.obj
 0001:000022b8       ??_V@YAXPAXI@Z             100032b8 f   LIBCMT:delete_array_size.obj
 0001:000022c6       ??2@YAPAXI@Z               100032c6 f   LIBCMT:new_scalar.obj
 0001:000022f9       ??3@YAXPAX@Z               100032f9 f   LIBCMT:delete_scalar.obj
 0001:000022fe       ??3@YAXPAXI@Z              100032fe f   LIBCMT:delete_scalar_size.obj
 0001:00002621       __DllMainCRTStartup@12     10003621 f   LIBCMT:dll_dllmain.obj
 0001:00002644       ___raise_securityfailure   10003644 f   LIBCMT:gs_report.obj
 0001:0000266c       ___report_gsfailure        1000366c f   LIBCMT:gs_report.obj
 0001:00002767       ??0bad_alloc@std@@QAE@ABV01@@Z 10003767 f i LIBCMT:throw_bad_alloc.obj
 0001:00002788       ??0bad_alloc@std@@QAE@XZ   10003788 f i LIBCMT:throw_bad_alloc.obj
 0001:000027a0       ??0bad_array_new_length@std@@QAE@ABV01@@Z 100037a0 f i LIBCMT:throw_bad_alloc.obj
 0001:000027c1       ??0bad_array_new_length@std@@QAE@XZ 100037c1 f i LIBCMT:throw_bad_alloc.obj
 0001:000027d9       ??0exception@std@@QAE@ABV01@@Z 100037d9 f i LIBCMT:throw_bad_alloc.obj
 0001:00002805       ??1bad_array_new_length@std@@UAE@XZ 10003805 f i LIBCMT:throw_bad_alloc.obj
 0001:00002805       ??1bad_alloc@std@@UAE@XZ   10003805 f i LIBCMT:throw_bad_alloc.obj
 0001:00002816       ??_Gbad_alloc@std@@UAEPAXI@Z 10003816 f i LIBCMT:throw_bad_alloc.obj
 0001:00002816       ??_Eexception@std@@UAEPAXI@Z 10003816 f i LIBCMT:throw_bad_alloc.obj
 0001:00002816       ??_Gbad_array_new_length@std@@UAEPAXI@Z 10003816 f i LIBCMT:throw_bad_alloc.obj
 0001:00002816       ??_Gexception@std@@UAEPAXI@Z 10003816 f i LIBCMT:throw_bad_alloc.obj
 0001:00002816       ??_Ebad_array_new_length@std@@UAEPAXI@Z 10003816 f i LIBCMT:throw_bad_alloc.obj
 0001:00002816       ??_Ebad_alloc@std@@UAEPAXI@Z 10003816 f i LIBCMT:throw_bad_alloc.obj
 0001:00002843       ?__scrt_throw_std_bad_alloc@@YAXXZ 10003843 f   LIBCMT:throw_bad_alloc.obj
 0001:00002860       ?__scrt_throw_std_bad_array_new_length@@YAXXZ 10003860 f   LIBCMT:throw_bad_alloc.obj
 0001:0000287d       ?what@exception@std@@UBEPBDXZ 1000387d f i LIBCMT:throw_bad_alloc.obj
 0001:0000288a       ??$__crt_fast_encode_pointer@PAX@@YAPAXQAX@Z 1000388a f i libvcruntime:winapi_downlevel.obj
 0001:0000288a       ??$__crt_fast_encode_pointer@PAP6AXXZ@@YAPAP6AXXZQAP6AXXZ@Z 1000388a f i LIBCMT:utility.obj
 0001:000028eb       ___scrt_acquire_startup_lock 100038eb f   LIBCMT:utility.obj
 0001:00002920       ___scrt_dllmain_after_initialize_c 10003920 f   LIBCMT:utility.obj
 0001:00002938       ___scrt_dllmain_before_initialize_c 10003938 f   LIBCMT:utility.obj
 0001:00002946       ___scrt_dllmain_crt_thread_attach 10003946 f   LIBCMT:utility.obj
 0001:00002965       ___scrt_dllmain_crt_thread_detach 10003965 f   LIBCMT:utility.obj
 0001:00002972       ___scrt_dllmain_exception_filter 10003972 f   LIBCMT:utility.obj
 0001:000029a5       ___scrt_dllmain_uninitialize_c 100039a5 f   LIBCMT:utility.obj
 0001:000029c8       ___scrt_dllmain_uninitialize_critical 100039c8 f   LIBCMT:utility.obj
 0001:000029d5       ___scrt_initialize_crt     100039d5 f   LIBCMT:utility.obj
 0001:00002a0e       ___scrt_initialize_onexit_tables 10003a0e f   LIBCMT:utility.obj
 0001:00002aa5       ___scrt_is_nonwritable_in_current_image 10003aa5 f   LIBCMT:utility.obj
 0001:00002b32       ___scrt_release_startup_lock 10003b32 f   LIBCMT:utility.obj
 0001:00002b4f       ___scrt_uninitialize_crt   10003b4f f   LIBCMT:utility.obj
 0001:00002b77       __onexit                   10003b77 f   LIBCMT:utility.obj
 0001:00002bb2       _atexit                    10003bb2 f   LIBCMT:utility.obj
 0001:00002bc7       ___security_init_cookie    10003bc7 f   LIBCMT:gs_support.obj
 0001:00002c63       _DllMain@12                10003c63 f   LIBCMT:dll_dllmain_stub.obj
 0001:00002c69       ?__scrt_initialize_type_info@@YAXXZ 10003c69 f   LIBCMT:tncleanup.obj
 0001:00002c75       ?__scrt_uninitialize_type_info@@YAXXZ 10003c75 f   LIBCMT:tncleanup.obj
 0001:00002c81       ___local_stdio_printf_options 10003c81 f i LIBCMT:default_local_stdio_options.obj
 0001:00002c87       ___local_stdio_scanf_options 10003c87 f i LIBCMT:default_local_stdio_options.obj
 0001:00002c8d       ___scrt_initialize_default_local_stdio_options 10003c8d f   LIBCMT:default_local_stdio_options.obj
 0001:00002caa       ___scrt_get_dyn_tls_init_callback 10003caa f   LIBCMT:dyn_tls_init.obj
 0001:00002cb0       ___scrt_fastfail           10003cb0 f   LIBCMT:utility_desktop.obj
 0001:00002dcb       __crt_debugger_hook        10003dcb f   LIBCMT:utility_desktop.obj
 0001:00002dd3       __RTC_Initialize           10003dd3 f   LIBCMT:_initsect_.obj
 0001:00002dfe       __RTC_Terminate            10003dfe f   LIBCMT:_initsect_.obj
 0001:00002e29       @_guard_check_icall@4      10003e29 f i LIBCMT:checkcfg.obj
 0001:00002e30       __SEH_prolog4              10003e30 f   LIBCMT:_sehprolg4_.obj
 0001:00002e76       __SEH_epilog4              10003e76 f   LIBCMT:_sehprolg4_.obj
 0001:00002e8b       ??_Etype_info@@UAEPAXI@Z   10003e8b f i LIBCMT:std_type_info_static.obj
 0001:00002e8b       ??_Gtype_info@@UAEPAXI@Z   10003e8b f i LIBCMT:std_type_info_static.obj
 0001:00002eae       ___isa_available_init      10003eae f   LIBCMT:_cpu_disp_.obj
 0001:0000304f       ___scrt_is_ucrt_dll_in_use 1000404f f   LIBCMT:ucrt_detection.obj
 0001:0000305b       __get_purecall_handler     1000405b f   libvcruntime:purevirt.obj
 0001:0000307a       __purecall                 1000407a f   libvcruntime:purevirt.obj
 0001:00003095       @_guard_check_icall_nop@4  10004095 f   LIBCMT:guard_support.obj
 0001:00003095       ___except_validate_context_record 10004095 f   libvcruntime:jbcxrval.obj
 0001:00003095       ___except_validate_jump_buffer 10004095 f   libvcruntime:jbcxrval.obj
 0001:000030d0       ___telemetry_main_invoke_trigger 100040d0 f   libvcruntime:telemetry.obj
 0001:0000316c       ___telemetry_main_return_trigger 1000416c f   libvcruntime:telemetry.obj
 0001:00003208       ___vcrt_initialize_telemetry_provider 10004208 f   libvcruntime:telemetry.obj
 0001:0000321b       ___vcrt_uninitialize_telemetry_provider 1000421b f   libvcruntime:telemetry.obj
 0001:00003270       __except_handler4          10004270 f   libvcruntime:_chandler4_.obj
 0001:000033ca       ___std_exception_copy      100043ca f   libvcruntime:std_exception.obj
 0001:0000342d       ___std_exception_destroy   1000442d f   libvcruntime:std_exception.obj
 0001:0000344c       __CxxThrowException@8      1000444c f   libvcruntime:throw.obj
 0001:000034ba       ___vcrt_initialize         100044ba f   libvcruntime:initialization.obj
 0001:000034e8       ___vcrt_thread_attach      100044e8 f   libvcruntime:initialization.obj
 0001:000034f3       ___vcrt_thread_detach      100044f3 f   libvcruntime:initialization.obj
 0001:000034fe       ___vcrt_uninitialize       100044fe f   libvcruntime:initialization.obj
 0001:00003522       ___vcrt_uninitialize_critical 10004522 f   libvcruntime:initialization.obj
 0001:0000352a       ___std_type_info_destroy_list 1000452a f   libvcruntime:std_type_info.obj
 0001:00003550       _memset                    10004550 f   libvcruntime:memset.obj
 0001:000036aa       ___vcrt_initialize_pure_virtual_call_handler 100046aa f   libvcruntime:purevirt_data.obj
 0001:000037e8       ___vcrt_EventRegister      100047e8 f   libvcruntime:winapi_downlevel.obj
 0001:00003828       ___vcrt_EventSetInformation 10004828 f   libvcruntime:winapi_downlevel.obj
 0001:0000386b       ___vcrt_EventUnregister    1000486b f   libvcruntime:winapi_downlevel.obj
 0001:000038a5       ___vcrt_EventWriteTransfer 100048a5 f   libvcruntime:winapi_downlevel.obj
 0001:000038ee       ___vcrt_FlsAlloc           100048ee f   libvcruntime:winapi_downlevel.obj
 0001:00003928       ___vcrt_FlsFree            10004928 f   libvcruntime:winapi_downlevel.obj
 0001:00003962       ___vcrt_FlsGetValue        10004962 f   libvcruntime:winapi_downlevel.obj
 0001:0000399c       ___vcrt_FlsSetValue        1000499c f   libvcruntime:winapi_downlevel.obj
 0001:000039d9       ___vcrt_InitializeCriticalSectionEx 100049d9 f   libvcruntime:winapi_downlevel.obj
 0001:00003a1f       ___vcrt_initialize_winapi_thunks 10004a1f f   libvcruntime:winapi_downlevel.obj
 0001:00003a43       ___vcrt_uninitialize_winapi_thunks 10004a43 f   libvcruntime:winapi_downlevel.obj
 0001:00003a80       __local_unwind4            10004a80 f   libvcruntime:_exsup4_.obj
 0001:00003b56       __seh_longjmp_unwind4@4    10004b56 f   libvcruntime:_exsup4_.obj
 0001:00003b7e       @_EH4_CallFilterFunc@8     10004b7e f   libvcruntime:_exsup4_.obj
 0001:00003b95       @_EH4_TransferToHandler@8  10004b95 f   libvcruntime:_exsup4_.obj
 0001:00003bae       @_EH4_GlobalUnwind2@8      10004bae f   libvcruntime:_exsup4_.obj
 0001:00003bc7       @_EH4_LocalUnwind@16       10004bc7 f   libvcruntime:_exsup4_.obj
 0001:00003bde       ___vcrt_freefls@4          10004bde f   libvcruntime:per_thread_data.obj
 0001:00003bfa       ___vcrt_freeptd            10004bfa f   libvcruntime:per_thread_data.obj
 0001:00003c30       ___vcrt_getptd_noexit      10004c30 f   libvcruntime:per_thread_data.obj
 0001:00003ca8       ___vcrt_initialize_ptd     10004ca8 f   libvcruntime:per_thread_data.obj
 0001:00003cdb       ___vcrt_uninitialize_ptd   10004cdb f   libvcruntime:per_thread_data.obj
 0001:00003cf6       ___vcrt_initialize_locks   10004cf6 f   libvcruntime:locks.obj
 0001:00003d32       ___vcrt_uninitialize_locks 10004d32 f   libvcruntime:locks.obj
 0001:00003d70       __global_unwind2           10004d70 f   libvcruntime:_exsup_.obj
 0001:00003dd5       __local_unwind2            10004dd5 f   libvcruntime:_exsup_.obj
 0001:00003e59       __abnormal_termination     10004e59 f   libvcruntime:_exsup_.obj
 0001:00003e7c       __NLG_Notify1              10004e7c f   libvcruntime:_exsup_.obj
 0001:00003e85       __NLG_Notify               10004e85 f   libvcruntime:_exsup_.obj
 0001:00003e9c       __NLG_Dispatch             10004e9c     libvcruntime:_exsup_.obj
 0001:00003e9c       __NLG_Dispatch2            10004e9c     libvcruntime:_exsup_.obj
 0001:00003ea4       __NLG_Call                 10004ea4 f   libvcruntime:_exsup_.obj
 0001:00003ea6       __NLG_Return2              10004ea6     libvcruntime:_exsup_.obj
 0001:0000450b       ??$ftprintf@PAU_iobuf@@PB_WABQB_WABQB_WABI@?$__crt_char_traits@_W@@SAH$$QAPAU_iobuf@@$$QAPB_WABQB_W2ABI@Z 1000550b f i libucrt:assert.obj
 0001:000045ea       __vfwprintf_l              100055ea f i libucrt:assert.obj
 0001:0000460f       __vswprintf_c_l            1000560f f i libucrt:assert.obj
 0001:0000463e       __wassert                  1000563e f   libucrt:assert.obj
 0001:00004686       _fwprintf                  10005686 f i libucrt:assert.obj
 0001:00004722       _swprintf                  10005722 f i libucrt:assert.obj
 0001:00004740       ??0_LocaleUpdate@@QAE@QAU__crt_locale_pointers@@@Z 10005740 f i libucrt:stricmp.obj
 0001:000047c3       ___ascii_stricmp           100057c3 f   libucrt:stricmp.obj
 0001:000047fe       __stricmp                  100057fe f   libucrt:stricmp.obj
 0001:00004846       __stricmp_l                10005846 f   libucrt:stricmp.obj
 0001:000048e0       ?initialize@?$dual_state_global@PAPAD@__crt_state_management@@QAEXQAPAD@Z 100058e0 f i libucrt:environment_initialization.obj
 0001:000048e0       ?initialize@?$dual_state_global@P6AXPB_W00II@Z@__crt_state_management@@QAEXQ6AXPB_W00II@Z@Z 100058e0 f i libucrt:invalid_parameter.obj
 0001:000048e0       ?initialize@?$dual_state_global@P6AHI@Z@__crt_state_management@@QAEXQ6AHI@Z@Z 100058e0 f i libucrt:new_handler.obj
 0001:000048e0       ?initialize@?$dual_state_global@P6AXH@Z@__crt_state_management@@QAEXQ6AXH@Z@Z 100058e0 f i libucrt:signal.obj
 0001:000048e0       ?initialize@?$dual_state_global@PAU__crt_locale_data@@@__crt_state_management@@QAEXQAU__crt_locale_data@@@Z 100058e0 f i libucrt:initialization.obj
 0001:000048e0       ?initialize@?$dual_state_global@P6AHPAU_exception@@@Z@__crt_state_management@@QAEXQ6AHPAU_exception@@@Z@Z 100058e0 f i libucrt:matherr.obj
 0001:00004911       ___acrt_initialize_new_handler 10005911 f   libucrt:new_handler.obj
 0001:00004925       __callnewh                 10005925 f   libucrt:new_handler.obj
 0001:00004969       __query_new_handler        10005969 f   libucrt:new_handler.obj
 0001:000049bb       _malloc                    100059bb f   libucrt:malloc.obj
 0001:000049c6       _free                      100059c6 f   libucrt:free.obj
 0001:000049cb       __initterm                 100059cb f   libucrt:initterm.obj
 0001:00004a27       __initterm_e               10005a27 f   libucrt:initterm.obj
 0001:00004a6c       __seh_filter_dll           10005a6c f   libucrt:exception_filter.obj
 0001:00004a8c       __seh_filter_exe           10005a8c f   libucrt:exception_filter.obj
 0001:00004e1a       ___acrt_initialize_thread_local_exit_callback 10005e1a f   libucrt:exit.obj
 0001:00004e29       __cexit                    10005e29 f   libucrt:exit.obj
 0001:00004e38       __exit                     10005e38 f   libucrt:exit.obj
 0001:00004e4e       __is_c_termination_complete 10005e4e f   libucrt:exit.obj
 0001:00004fad       ??$uninitialize@A6AXAAPAPA_W@Z@?$dual_state_global@PAPA_W@__crt_state_management@@QAEXA6AXAAPAPA_W@Z@Z 10005fad f i libucrt:environment_initialization.obj
 0001:00004fad       ??$uninitialize@A6AXAAPAPAD@Z@?$dual_state_global@PAPAD@__crt_state_management@@QAEXA6AXAAPAPAD@Z@Z 10005fad f i libucrt:environment_initialization.obj
 0001:00005023       ___dcrt_uninitialize_environments_nolock 10006023 f   libucrt:environment_initialization.obj
 0001:0000505a       __initialize_narrow_environment 1000605a f   libucrt:environment_initialization.obj
 0001:0000505f       ??$?RV<lambda_800076c951b434888f4765a74a194fcc>@@AAV<lambda_4e60a939b0d047cfe11ddc22648dfba9>@@V<lambda_6dbb1268764f43b569ce7b67e331d33a>@@@?$__crt_seh_guarded_call@H@@QAEH$$QAV<lambda_800076c951b434888f4765a74a194fcc>@@AAV<lambda_4e60a939b0d047cfe11ddc22648dfba9>@@$$QAV<lambda_6dbb1268764f43b569ce7b67e331d33a>@@@Z 1000605f f i libucrt:onexit.obj
 0001:000050b0       ??$?RV<lambda_995298e7d72eb4c2aab26c0585b3abe5>@@AAV<lambda_275893d493268fdec8709772e3fcec0e>@@V<lambda_293819299cbf9a7022e18b56a874bb5c>@@@?$__crt_seh_guarded_call@H@@QAEH$$QAV<lambda_995298e7d72eb4c2aab26c0585b3abe5>@@AAV<lambda_275893d493268fdec8709772e3fcec0e>@@$$QAV<lambda_293819299cbf9a7022e18b56a874bb5c>@@@Z 100060b0 f i libucrt:onexit.obj
 0001:00005101       ??$__acrt_lock_and_call@V<lambda_275893d493268fdec8709772e3fcec0e>@@@@YAHW4__acrt_lock_id@@$$QAV<lambda_275893d493268fdec8709772e3fcec0e>@@@Z 10006101 f i libucrt:onexit.obj
 0001:00005129       ??$__acrt_lock_and_call@V<lambda_4e60a939b0d047cfe11ddc22648dfba9>@@@@YAHW4__acrt_lock_id@@$$QAV<lambda_4e60a939b0d047cfe11ddc22648dfba9>@@@Z 10006129 f i libucrt:onexit.obj
 0001:00005151       ??$__crt_fast_encode_pointer@P6AHXZ@@YAP6AHXZQ6AHXZ@Z 10006151 f i libucrt:onexit.obj
 0001:000053d1       __crt_atexit               100063d1 f   libucrt:onexit.obj
 0001:000053e7       __execute_onexit_table     100063e7 f   libucrt:onexit.obj
 0001:00005404       __initialize_onexit_table  10006404 f   libucrt:onexit.obj
 0001:00005441       __register_onexit_function 10006441 f   libucrt:onexit.obj
 0001:00005499       ___acrt_uninitialize_command_line 10006499 f   libucrt:argv_data.obj
 0001:00005559       ___acrt_initialize         10006559 f   libucrt:initialization.obj
 0001:0000556b       ___acrt_thread_attach      1000656b f   libucrt:initialization.obj
 0001:00005576       ___acrt_thread_detach      10006576 f   libucrt:initialization.obj
 0001:0000557e       ___acrt_uninitialize       1000657e f   libucrt:initialization.obj
 0001:00005590       ___acrt_uninitialize_critical 10006590 f   libucrt:initialization.obj
 0001:000055a2       _terminate                 100065a2 f   libucrt:terminate.obj
 0001:000055de       _abort                     100065de f   libucrt:abort.obj
 0001:00005621       _strcpy_s                  10006621 f   libucrt:strcpy_s.obj
 0001:0000567b       __free_base                1000667b f   libucrt:free_base.obj
 0001:000056b5       __malloc_base              100066b5 f   libucrt:malloc_base.obj
 0001:00005703       __calloc_base              10006703 f   libucrt:calloc_base.obj
 0001:00005760       ??$?RV<lambda_ab9923ffb5d694ec0d78876dd103e44f>@@AAV<lambda_481dd5778c961fbcd3b60b650e9b9dc4>@@V<lambda_7923d86c9e3f319b415918ec4b39749c>@@@?$__crt_seh_guarded_call@H@@QAEH$$QAV<lambda_ab9923ffb5d694ec0d78876dd103e44f>@@AAV<lambda_481dd5778c961fbcd3b60b650e9b9dc4>@@$$QAV<lambda_7923d86c9e3f319b415918ec4b39749c>@@@Z 10006760 f i libucrt:output.obj
 0001:000057b1       ??$__acrt_lock_stream_and_call@V<lambda_481dd5778c961fbcd3b60b650e9b9dc4>@@@@YAHQAU_iobuf@@$$QAV<lambda_481dd5778c961fbcd3b60b650e9b9dc4>@@@Z 100067b1 f i libucrt:output.obj
 0001:0000595e       ??$count@D@formatting_buffer@__crt_stdio_output@@QBEIXZ 1000695e f i libucrt:output.obj
 0001:00005976       ??$ensure_buffer_is_big_enough@D@formatting_buffer@__crt_stdio_output@@QAE_NI@Z 10006976 f i libucrt:output.obj
 0001:000059fc       ??$is_wide_character_specifier@_W@__crt_stdio_output@@YA_N_K_WW4length_modifier@0@@Z 100069fc f i libucrt:output.obj
 0001:00005a4b       ??$scratch_data@D@formatting_buffer@__crt_stdio_output@@QAEPADXZ 10006a4b f i libucrt:output.obj
 0001:00005a69       ??$type_case_integer_parse_into_buffer@I@?$output_processor@_WV?$stream_output_adapter@_W@__crt_stdio_output@@V?$standard_base@_WV?$stream_output_adapter@_W@__crt_stdio_output@@@2@@__crt_stdio_output@@AAEXII_N@Z 10006a69 f i libucrt:output.obj
 0001:00005a69       ??$type_case_integer_parse_into_buffer@I@?$output_processor@_WV?$string_output_adapter@_W@__crt_stdio_output@@V?$standard_base@_WV?$string_output_adapter@_W@__crt_stdio_output@@@2@@__crt_stdio_output@@AAEXII_N@Z 10006a69 f i libucrt:output.obj
 0001:00005ade       ??$type_case_integer_parse_into_buffer@_K@?$output_processor@_WV?$stream_output_adapter@_W@__crt_stdio_output@@V?$standard_base@_WV?$stream_output_adapter@_W@__crt_stdio_output@@@2@@__crt_stdio_output@@AAEX_KI_N@Z 10006ade f i libucrt:output.obj
 0001:00005ade       ??$type_case_integer_parse_into_buffer@_K@?$output_processor@_WV?$string_output_adapter@_W@__crt_stdio_output@@V?$standard_base@_WV?$string_output_adapter@_W@__crt_stdio_output@@@2@@__crt_stdio_output@@AAEX_KI_N@Z 10006ade f i libucrt:output.obj
 0001:00005b66       ??$write_multiple_characters@V?$stream_output_adapter@_W@__crt_stdio_output@@D@__crt_stdio_output@@YAXABV?$stream_output_adapter@_W@0@DHQAH@Z 10006b66 f i libucrt:output.obj
 0001:00005b97       ??$write_multiple_characters@V?$string_output_adapter@_W@__crt_stdio_output@@D@__crt_stdio_output@@YAXABV?$string_output_adapter@_W@0@DHQAH@Z 10006b97 f i libucrt:output.obj
 0001:00005bc8       ??0?$common_data@_W@__crt_stdio_output@@IAE@XZ 10006bc8 f i libucrt:output.obj
 0001:00005c14       ??0?$output_adapter_data@_WV?$string_output_adapter@_W@__crt_stdio_output@@@__crt_stdio_output@@IAE@ABV?$string_output_adapter@_W@1@_KQB_WQAU__crt_locale_pointers@@QAD@Z 10006c14 f i libucrt:output.obj
 0001:00005c14       ??0?$output_adapter_data@_WV?$stream_output_adapter@_W@__crt_stdio_output@@@__crt_stdio_output@@IAE@ABV?$stream_output_adapter@_W@1@_KQB_WQAU__crt_locale_pointers@@QAD@Z 10006c14 f i libucrt:output.obj
 0001:00005c50       ??0?$output_processor@_WV?$string_output_adapter@_W@__crt_stdio_output@@V?$standard_base@_WV?$string_output_adapter@_W@__crt_stdio_output@@@2@@__crt_stdio_output@@QAE@ABV?$string_output_adapter@_W@1@_KQB_WQAU__crt_locale_pointers@@QAD@Z 10006c50 f i libucrt:output.obj
 0001:00005c50       ??0?$output_processor@_WV?$stream_output_adapter@_W@__crt_stdio_output@@V?$standard_base@_WV?$stream_output_adapter@_W@__crt_stdio_output@@@2@@__crt_stdio_output@@QAE@ABV?$stream_output_adapter@_W@1@_KQB_WQAU__crt_locale_pointers@@QAD@Z 10006c50 f i libucrt:output.obj
 0001:00005c85       ??1formatting_buffer@__crt_stdio_output@@QAE@XZ 10006c85 f i libucrt:output.obj
 0001:00005c9f       ??4?$__crt_unique_heap_ptr@DU__crt_internal_free_policy@@@@QAEAAV0@$$QAV0@@Z 10006c9f f i libucrt:output.obj
 0001:00005d80       ?crop_zeroes@__crt_stdio_output@@YAXPADQAU__crt_locale_pointers@@@Z 10006d80 f i libucrt:output.obj
 0001:00005dd7       ?find_next_state@?$output_processor@_WV?$stream_output_adapter@_W@__crt_stdio_output@@V?$standard_base@_WV?$stream_output_adapter@_W@__crt_stdio_output@@@2@@__crt_stdio_output@@ABE?AW4state@2@_WW432@@Z 10006dd7 f i libucrt:output.obj
 0001:00005dd7       ?find_next_state@?$output_processor@_WV?$string_output_adapter@_W@__crt_stdio_output@@V?$standard_base@_WV?$string_output_adapter@_W@__crt_stdio_output@@@2@@__crt_stdio_output@@ABE?AW4state@2@_WW432@@Z 10006dd7 f i libucrt:output.obj
 0001:00005e0b       ?force_decimal_point@__crt_stdio_output@@YAXPADQAU__crt_locale_pointers@@@Z 10006e0b f i libucrt:output.obj
 0001:00005e67       ?parse_int_from_format_string@?$output_processor@_WV?$string_output_adapter@_W@__crt_stdio_output@@V?$standard_base@_WV?$string_output_adapter@_W@__crt_stdio_output@@@2@@__crt_stdio_output@@AAE_NQAH@Z 10006e67 f i libucrt:output.obj
 0001:00005e67       ?parse_int_from_format_string@?$output_processor@_WV?$stream_output_adapter@_W@__crt_stdio_output@@V?$standard_base@_WV?$stream_output_adapter@_W@__crt_stdio_output@@@2@@__crt_stdio_output@@AAE_NQAH@Z 10006e67 f i libucrt:output.obj
 0001:00005ec5       ?process@?$output_processor@_WV?$stream_output_adapter@_W@__crt_stdio_output@@V?$standard_base@_WV?$stream_output_adapter@_W@__crt_stdio_output@@@2@@__crt_stdio_output@@QAEHXZ 10006ec5 f i libucrt:output.obj
 0001:00005fe5       ?process@?$output_processor@_WV?$string_output_adapter@_W@__crt_stdio_output@@V?$standard_base@_WV?$string_output_adapter@_W@__crt_stdio_output@@@2@@__crt_stdio_output@@QAEHXZ 10006fe5 f i libucrt:output.obj
 0001:00006105       ?state_case_flag@?$output_processor@_WV?$string_output_adapter@_W@__crt_stdio_output@@V?$standard_base@_WV?$string_output_adapter@_W@__crt_stdio_output@@@2@@__crt_stdio_output@@AAE_NXZ 10007105 f i libucrt:output.obj
 0001:00006105       ?state_case_flag@?$output_processor@_WV?$stream_output_adapter@_W@__crt_stdio_output@@V?$standard_base@_WV?$stream_output_adapter@_W@__crt_stdio_output@@@2@@__crt_stdio_output@@AAE_NXZ 10007105 f i libucrt:output.obj
 0001:00006142       ?state_case_normal@?$output_processor@_WV?$stream_output_adapter@_W@__crt_stdio_output@@V?$standard_base@_WV?$stream_output_adapter@_W@__crt_stdio_output@@@2@@__crt_stdio_output@@AAE_NXZ 10007142 f i libucrt:output.obj
 0001:00006161       ?state_case_normal@?$output_processor@_WV?$string_output_adapter@_W@__crt_stdio_output@@V?$standard_base@_WV?$string_output_adapter@_W@__crt_stdio_output@@@2@@__crt_stdio_output@@AAE_NXZ 10007161 f i libucrt:output.obj
 0001:00006180       ?state_case_normal_common@?$output_processor@_WV?$stream_output_adapter@_W@__crt_stdio_output@@V?$standard_base@_WV?$stream_output_adapter@_W@__crt_stdio_output@@@2@@__crt_stdio_output@@AAE_NXZ 10007180 f i libucrt:output.obj
 0001:0000619b       ?state_case_normal_common@?$output_processor@_WV?$string_output_adapter@_W@__crt_stdio_output@@V?$standard_base@_WV?$string_output_adapter@_W@__crt_stdio_output@@@2@@__crt_stdio_output@@AAE_NXZ 1000719b f i libucrt:output.obj
 0001:000061b6       ?state_case_precision@?$output_processor@_WV?$stream_output_adapter@_W@__crt_stdio_output@@V?$standard_base@_WV?$stream_output_adapter@_W@__crt_stdio_output@@@2@@__crt_stdio_output@@AAE_NXZ 100071b6 f i libucrt:output.obj
 0001:000061b6       ?state_case_precision@?$output_processor@_WV?$string_output_adapter@_W@__crt_stdio_output@@V?$standard_base@_WV?$string_output_adapter@_W@__crt_stdio_output@@@2@@__crt_stdio_output@@AAE_NXZ 100071b6 f i libucrt:output.obj
 0001:000061df       ?state_case_size@?$output_processor@_WV?$stream_output_adapter@_W@__crt_stdio_output@@V?$standard_base@_WV?$stream_output_adapter@_W@__crt_stdio_output@@@2@@__crt_stdio_output@@AAE_NXZ 100071df f i libucrt:output.obj
 0001:0000635b       ?state_case_size@?$output_processor@_WV?$string_output_adapter@_W@__crt_stdio_output@@V?$standard_base@_WV?$string_output_adapter@_W@__crt_stdio_output@@@2@@__crt_stdio_output@@AAE_NXZ 1000735b f i libucrt:output.obj
 0001:000064d7       ?state_case_type@?$output_processor@_WV?$stream_output_adapter@_W@__crt_stdio_output@@V?$standard_base@_WV?$stream_output_adapter@_W@__crt_stdio_output@@@2@@__crt_stdio_output@@AAE_NXZ 100074d7 f i libucrt:output.obj
 0001:00006734       ?state_case_type@?$output_processor@_WV?$string_output_adapter@_W@__crt_stdio_output@@V?$standard_base@_WV?$string_output_adapter@_W@__crt_stdio_output@@@2@@__crt_stdio_output@@AAE_NXZ 10007734 f i libucrt:output.obj
 0001:00006991       ?state_case_width@?$output_processor@_WV?$stream_output_adapter@_W@__crt_stdio_output@@V?$standard_base@_WV?$stream_output_adapter@_W@__crt_stdio_output@@@2@@__crt_stdio_output@@AAE_NXZ 10007991 f i libucrt:output.obj
 0001:00006991       ?state_case_width@?$output_processor@_WV?$string_output_adapter@_W@__crt_stdio_output@@V?$standard_base@_WV?$string_output_adapter@_W@__crt_stdio_output@@@2@@__crt_stdio_output@@AAE_NXZ 10007991 f i libucrt:output.obj
 0001:000069bd       ?to_integer_size@__crt_stdio_output@@YAIW4length_modifier@1@@Z 100079bd f i libucrt:output.obj
 0001:00006a19       ?type_case_Z@?$output_processor@_WV?$stream_output_adapter@_W@__crt_stdio_output@@V?$standard_base@_WV?$stream_output_adapter@_W@__crt_stdio_output@@@2@@__crt_stdio_output@@AAE_NXZ 10007a19 f i libucrt:output.obj
 0001:00006a19       ?type_case_Z@?$output_processor@_WV?$string_output_adapter@_W@__crt_stdio_output@@V?$standard_base@_WV?$string_output_adapter@_W@__crt_stdio_output@@@2@@__crt_stdio_output@@AAE_NXZ 10007a19 f i libucrt:output.obj
 0001:00006a7c       ?type_case_a@?$output_processor@_WV?$stream_output_adapter@_W@__crt_stdio_output@@V?$standard_base@_WV?$stream_output_adapter@_W@__crt_stdio_output@@@2@@__crt_stdio_output@@AAE_NXZ 10007a7c f i libucrt:output.obj
 0001:00006a7c       ?type_case_a@?$output_processor@_WV?$string_output_adapter@_W@__crt_stdio_output@@V?$standard_base@_WV?$string_output_adapter@_W@__crt_stdio_output@@@2@@__crt_stdio_output@@AAE_NXZ 10007a7c f i libucrt:output.obj
 0001:00006bee       ?type_case_c_tchar@?$output_processor@_WV?$string_output_adapter@_W@__crt_stdio_output@@V?$standard_base@_WV?$string_output_adapter@_W@__crt_stdio_output@@@2@@__crt_stdio_output@@AAE_N_W@Z 10007bee f i libucrt:output.obj
 0001:00006bee       ?type_case_c_tchar@?$output_processor@_WV?$stream_output_adapter@_W@__crt_stdio_output@@V?$standard_base@_WV?$stream_output_adapter@_W@__crt_stdio_output@@@2@@__crt_stdio_output@@AAE_N_W@Z 10007bee f i libucrt:output.obj
 0001:00006c86       ?type_case_integer@?$output_processor@_WV?$stream_output_adapter@_W@__crt_stdio_output@@V?$standard_base@_WV?$stream_output_adapter@_W@__crt_stdio_output@@@2@@__crt_stdio_output@@AAE_NI_N@Z 10007c86 f i libucrt:output.obj
 0001:00006c86       ?type_case_integer@?$output_processor@_WV?$string_output_adapter@_W@__crt_stdio_output@@V?$standard_base@_WV?$string_output_adapter@_W@__crt_stdio_output@@@2@@__crt_stdio_output@@AAE_NI_N@Z 10007c86 f i libucrt:output.obj
 0001:00006dd0       ?type_case_n@?$output_processor@_WV?$string_output_adapter@_W@__crt_stdio_output@@V?$standard_base@_WV?$string_output_adapter@_W@__crt_stdio_output@@@2@@__crt_stdio_output@@AAE_NXZ 10007dd0 f i libucrt:output.obj
 0001:00006dd0       ?type_case_n@?$output_processor@_WV?$stream_output_adapter@_W@__crt_stdio_output@@V?$standard_base@_WV?$stream_output_adapter@_W@__crt_stdio_output@@@2@@__crt_stdio_output@@AAE_NXZ 10007dd0 f i libucrt:output.obj
 0001:00006e44       ?type_case_o@?$output_processor@_WV?$stream_output_adapter@_W@__crt_stdio_output@@V?$standard_base@_WV?$stream_output_adapter@_W@__crt_stdio_output@@@2@@__crt_stdio_output@@AAE_NXZ 10007e44 f i libucrt:output.obj
 0001:00006e44       ?type_case_o@?$output_processor@_WV?$string_output_adapter@_W@__crt_stdio_output@@V?$standard_base@_WV?$string_output_adapter@_W@__crt_stdio_output@@@2@@__crt_stdio_output@@AAE_NXZ 10007e44 f i libucrt:output.obj
 0001:00006e63       ?type_case_p@?$output_processor@_WV?$string_output_adapter@_W@__crt_stdio_output@@V?$standard_base@_WV?$string_output_adapter@_W@__crt_stdio_output@@@2@@__crt_stdio_output@@AAE_NXZ 10007e63 f i libucrt:output.obj
 0001:00006e63       ?type_case_p@?$output_processor@_WV?$stream_output_adapter@_W@__crt_stdio_output@@V?$standard_base@_WV?$stream_output_adapter@_W@__crt_stdio_output@@@2@@__crt_stdio_output@@AAE_NXZ 10007e63 f i libucrt:output.obj
 0001:00006e7b       ?type_case_s@?$output_processor@_WV?$string_output_adapter@_W@__crt_stdio_output@@V?$standard_base@_WV?$string_output_adapter@_W@__crt_stdio_output@@@2@@__crt_stdio_output@@AAE_NXZ 10007e7b f i libucrt:output.obj
 0001:00006e7b       ?type_case_s@?$output_processor@_WV?$stream_output_adapter@_W@__crt_stdio_output@@V?$standard_base@_WV?$stream_output_adapter@_W@__crt_stdio_output@@@2@@__crt_stdio_output@@AAE_NXZ 10007e7b f i libucrt:output.obj
 0001:00006eef       ?type_case_s_compute_narrow_string_length@?$output_processor@_WV?$stream_output_adapter@_W@__crt_stdio_output@@V?$standard_base@_WV?$stream_output_adapter@_W@__crt_stdio_output@@@2@@__crt_stdio_output@@ABEHH_W@Z 10007eef f i libucrt:output.obj
 0001:00006eef       ?type_case_s_compute_narrow_string_length@?$output_processor@_WV?$string_output_adapter@_W@__crt_stdio_output@@V?$standard_base@_WV?$string_output_adapter@_W@__crt_stdio_output@@@2@@__crt_stdio_output@@ABEHH_W@Z 10007eef f i libucrt:output.obj
 0001:00006f2f       ?write_character@?$stream_output_adapter@_W@__crt_stdio_output@@QBEX_WQAH@Z 10007f2f f i libucrt:output.obj
 0001:00006f6f       ?write_character@?$string_output_adapter@_W@__crt_stdio_output@@QBE_N_WQAH@Z 10007f6f f i libucrt:output.obj
 0001:00006fb4       ?write_stored_string_tchar@?$output_processor@_WV?$stream_output_adapter@_W@__crt_stdio_output@@V?$standard_base@_WV?$stream_output_adapter@_W@__crt_stdio_output@@@2@@__crt_stdio_output@@AAE_N_W@Z 10007fb4 f i libucrt:output.obj
 0001:0000703f       ?write_stored_string_tchar@?$output_processor@_WV?$string_output_adapter@_W@__crt_stdio_output@@V?$standard_base@_WV?$string_output_adapter@_W@__crt_stdio_output@@@2@@__crt_stdio_output@@AAE_N_W@Z 1000803f f i libucrt:output.obj
 0001:000070ca       ?write_string@?$stream_output_adapter@_W@__crt_stdio_output@@QBEXQB_WHQAH1@Z 100080ca f i libucrt:output.obj
 0001:00007157       ?write_string@?$string_output_adapter@_W@__crt_stdio_output@@QBEXQB_WHQAH1@Z 10008157 f i libucrt:output.obj
 0001:000071f1       ___stdio_common_vfwprintf  100081f1 f   libucrt:output.obj
 0001:00007268       ___stdio_common_vswprintf  10008268 f   libucrt:output.obj
 0001:0000728c       ??$is_overflow_condition@K@__crt_strtox@@YA_NIK@Z 1000828c f i libucrt:atox.obj
 0001:000072bf       ??$parse_integer@KV?$c_string_character_source@_W@__crt_strtox@@@__crt_strtox@@YAKQAU__crt_locale_pointers@@V?$c_string_character_source@_W@0@H_N@Z 100082bf f i libucrt:atox.obj
 0001:000079a4       ?unget@?$c_string_character_source@_W@__crt_strtox@@QAEX_W@Z 100089a4 f i libucrt:atox.obj
 0001:000079d0       ?validate@?$string_output_adapter@_W@__crt_stdio_output@@QBE_NXZ 100089d0 f i libucrt:output.obj
 0001:000079d0       ?validate@?$stream_output_adapter@_W@__crt_stdio_output@@QBE_NXZ 100089d0 f i libucrt:output.obj
 0001:000079d0       ?validate@?$c_string_character_source@_W@__crt_strtox@@QBE_NXZ 100089d0 f i libucrt:atox.obj
 0001:000079eb       __chvalidchk_l             100089eb f i libucrt:atox.obj
 0001:00007a15       __ischartype_l             10008a15 f i libucrt:atox.obj
 0001:00007a48       ___acrt_call_reportfault   10008a48 f   libucrt:invalid_parameter.obj
 0001:00007b83       ___acrt_initialize_invalid_parameter_handler 10008b83 f   libucrt:invalid_parameter.obj
 0001:00007b97       __invalid_parameter        10008b97 f   libucrt:invalid_parameter.obj
 0001:00007c12       __invalid_parameter_noinfo 10008c12 f   libucrt:invalid_parameter.obj
 0001:00007c22       __invoke_watson            10008c22 f   libucrt:invalid_parameter.obj
 0001:00007c55       __query_app_type           10008c55 f   libucrt:report_runtime_error.obj
 0001:00007c5b       ___acrt_errno_from_os_error 10008c5b f   libucrt:errno.obj
 0001:00007c9e       ___acrt_errno_map_os_error 10008c9e f   libucrt:errno.obj
 0001:00007cc1       ___doserrno                10008cc1 f   libucrt:errno.obj
 0001:00007cd4       __errno                    10008cd4 f   libucrt:errno.obj
 0001:00007dd4       __itow_s                   10008dd4 f   libucrt:xtoa.obj
 0001:00007e09       __set_error_mode           10008e09 f   libucrt:set_error_mode.obj
 0001:00007e48       _wcscat_s                  10008e48 f   libucrt:wcscat_s.obj
 0001:00007ebd       _wcscpy_s                  10008ebd f   libucrt:wcscpy_s.obj
 0001:0000800a       _wcsncat_s                 1000900a f   libucrt:wcsncat_s.obj
 0001:00008110       ___acrt_show_wide_message_box 10009110 f   libucrt:crtmbox.obj
 0001:0000811b       ___acrt_initialize_stdio   1000911b f   libucrt:_file.obj
 0001:000081e3       ___acrt_iob_func           100091e3 f   libucrt:_file.obj
 0001:000081f3       ___acrt_uninitialize_stdio 100091f3 f   libucrt:_file.obj
 0001:0000823f       __lock_file                1000923f f   libucrt:_file.obj
 0001:00008253       __unlock_file              10009253 f   libucrt:_file.obj
 0001:00008267       ___acrt_stdio_flush_nolock 10009267 f   libucrt:fflush.obj
 0001:000082cd       __fflush_nolock            100092cd f   libucrt:fflush.obj
 0001:00008314       __flushall                 10009314 f   libucrt:fflush.obj
 0001:000083f5       _fflush                    100093f5 f   libucrt:fflush.obj
 0001:0000844e       ??$?RV<lambda_d92cfe8357b99225085016881b624cb0>@@AAV<lambda_b721fa326cdb32351d23dfa67958c160>@@V<lambda_42d75b0848218ec137fa420c8ba9fdf9>@@@?$__crt_seh_guarded_call@H@@QAEH$$QAV<lambda_d92cfe8357b99225085016881b624cb0>@@AAV<lambda_b721fa326cdb32351d23dfa67958c160>@@$$QAV<lambda_42d75b0848218ec137fa420c8ba9fdf9>@@@Z 1000944e f i libucrt:setvbuf.obj
 0001:0000849f       ??$__acrt_lock_stream_and_call@V<lambda_b721fa326cdb32351d23dfa67958c160>@@@@YAHQAU_iobuf@@$$QAV<lambda_b721fa326cdb32351d23dfa67958c160>@@@Z 1000949f f i libucrt:setvbuf.obj
 0001:00008594       _setvbuf                   10009594 f   libucrt:setvbuf.obj
 0001:0000860a       ??$?RV<lambda_a048d3beccc847880fc8490e18b82769>@@AAV<lambda_ec61778202f4f5fc7e7711acc23c3bca>@@V<lambda_f7496a158712204296dd6628a163878e>@@@?$__crt_seh_guarded_call@P6AXH@Z@@QAEP6AXH@Z$$QAV<lambda_a048d3beccc847880fc8490e18b82769>@@AAV<lambda_ec61778202f4f5fc7e7711acc23c3bca>@@$$QAV<lambda_f7496a158712204296dd6628a163878e>@@@Z 1000960a f i libucrt:signal.obj
 0001:00008664       ??$__acrt_lock_and_call@V<lambda_ec61778202f4f5fc7e7711acc23c3bca>@@@@YAP6AXH@ZW4__acrt_lock_id@@$$QAV<lambda_ec61778202f4f5fc7e7711acc23c3bca>@@@Z 10009664 f i libucrt:signal.obj
 0001:000086f6       ___acrt_get_sigabrt_handler 100096f6 f   libucrt:signal.obj
 0001:0000870d       ___acrt_initialize_signal_handlers 1000970d f   libucrt:signal.obj
 0001:00008748       ___fpecode                 10009748 f   libucrt:signal.obj
 0001:00008751       _raise                     10009751 f   libucrt:signal.obj
 0001:00008ac0       __tolower_l                10009ac0 f   libucrt:tolower_toupper.obj
 0001:00008ada       _tolower                   10009ada f   libucrt:tolower_toupper.obj
 0001:00008b0a       ??$?RV<lambda_3518db117f0e7cdb002338c5d3c47b6c>@@AAV<lambda_b2ea41f6bbb362cd97d94c6828d90b61>@@V<lambda_abdedf541bb04549bc734292b4a045d4>@@@?$__crt_seh_guarded_call@X@@QAEX$$QAV<lambda_3518db117f0e7cdb002338c5d3c47b6c>@@AAV<lambda_b2ea41f6bbb362cd97d94c6828d90b61>@@$$QAV<lambda_abdedf541bb04549bc734292b4a045d4>@@@Z 10009b0a f i libucrt:per_thread_data.obj
 0001:00008b5a       ??$?RV<lambda_51b6e8b1eb166f2a3faf91f424b38130>@@AAV<lambda_6250bd4b2a391816dd638c3bf72b0bcb>@@V<lambda_0b5a4a3e68152e1d9b943535f5f47bed>@@@?$__crt_seh_guarded_call@X@@QAEX$$QAV<lambda_51b6e8b1eb166f2a3faf91f424b38130>@@AAV<lambda_6250bd4b2a391816dd638c3bf72b0bcb>@@$$QAV<lambda_0b5a4a3e68152e1d9b943535f5f47bed>@@@Z 10009b5a f i libucrt:per_thread_data.obj
 0001:00008bbb       ??$?RV<lambda_5b71d36f03204c0beab531769a5b5694>@@AAV<lambda_be2b3da3f62db62e9dad5dc70221a656>@@V<lambda_8f9ce462984622f9bf76b59e2aaaf805>@@@?$__crt_seh_guarded_call@X@@QAEX$$QAV<lambda_5b71d36f03204c0beab531769a5b5694>@@AAV<lambda_be2b3da3f62db62e9dad5dc70221a656>@@$$QAV<lambda_8f9ce462984622f9bf76b59e2aaaf805>@@@Z 10009bbb f i libucrt:per_thread_data.obj
 0001:00008c06       ??$?RV<lambda_9df27f884b057bc3edfc946cb5b7cf47>@@AAV<lambda_e69574bed617af4e071282c136b37893>@@V<lambda_cc0d902bcbbeb830f749456577db4721>@@@?$__crt_seh_guarded_call@X@@QAEX$$QAV<lambda_9df27f884b057bc3edfc946cb5b7cf47>@@AAV<lambda_e69574bed617af4e071282c136b37893>@@$$QAV<lambda_cc0d902bcbbeb830f749456577db4721>@@@Z 10009c06 f i libucrt:per_thread_data.obj
 0001:00008c4e       ??$__acrt_lock_and_call@V<lambda_6250bd4b2a391816dd638c3bf72b0bcb>@@@@YAXW4__acrt_lock_id@@$$QAV<lambda_6250bd4b2a391816dd638c3bf72b0bcb>@@@Z 10009c4e f i libucrt:per_thread_data.obj
 0001:00008c76       ??$__acrt_lock_and_call@V<lambda_b2ea41f6bbb362cd97d94c6828d90b61>@@@@YAXW4__acrt_lock_id@@$$QAV<lambda_b2ea41f6bbb362cd97d94c6828d90b61>@@@Z 10009c76 f i libucrt:per_thread_data.obj
 0001:00008c9e       ??$__acrt_lock_and_call@V<lambda_be2b3da3f62db62e9dad5dc70221a656>@@@@YAXW4__acrt_lock_id@@$$QAV<lambda_be2b3da3f62db62e9dad5dc70221a656>@@@Z 10009c9e f i libucrt:per_thread_data.obj
 0001:00008cc6       ??$__acrt_lock_and_call@V<lambda_e69574bed617af4e071282c136b37893>@@@@YAXW4__acrt_lock_id@@$$QAV<lambda_e69574bed617af4e071282c136b37893>@@@Z 10009cc6 f i libucrt:per_thread_data.obj
 0001:00008e7c       ___acrt_freeptd            10009e7c f   libucrt:per_thread_data.obj
 0001:00008ea8       ___acrt_getptd             10009ea8 f   libucrt:per_thread_data.obj
 0001:00008f2c       ___acrt_getptd_noexit      10009f2c f   libucrt:per_thread_data.obj
 0001:00008fb1       ___acrt_initialize_ptd     10009fb1 f   libucrt:per_thread_data.obj
 0001:00008fdd       ___acrt_uninitialize_ptd   10009fdd f   libucrt:per_thread_data.obj
 0001:00008ff7       ___acrt_update_locale_info 10009ff7 f   libucrt:locale_update.obj
 0001:00009024       ___acrt_update_multibyte_info 1000a024 f   libucrt:locale_update.obj
 0001:00009051       ___acrt_set_locale_changed 1000a051 f   libucrt:wsetlocale.obj
 0001:0000905c       ___acrt_uninitialize_locale 1000a05c f   libucrt:wsetlocale.obj
 0001:000090ae       ___acrt_initialize_locks   1000a0ae f   libucrt:locks.obj
 0001:000090ef       ___acrt_lock               1000a0ef f   libucrt:locks.obj
 0001:00009106       ___acrt_uninitialize_locks 1000a106 f   libucrt:locks.obj
 0001:00009137       ___acrt_unlock             1000a137 f   libucrt:locks.obj
 0001:00009299       ___acrt_FlsAlloc@4         1000a299 f   libucrt:winapi_thunks.obj
 0001:000092ef       ___acrt_FlsFree@4          1000a2ef f   libucrt:winapi_thunks.obj
 0001:00009345       ___acrt_FlsGetValue@4      1000a345 f   libucrt:winapi_thunks.obj
 0001:0000939b       ___acrt_FlsSetValue@8      1000a39b f   libucrt:winapi_thunks.obj
 0001:000093f4       ___acrt_InitializeCriticalSectionEx@12 1000a3f4 f   libucrt:winapi_thunks.obj
 0001:00009456       ___acrt_LCMapStringEx@36   1000a456 f   libucrt:winapi_thunks.obj
 0001:000094de       ___acrt_LocaleNameToLCID@8 1000a4de f   libucrt:winapi_thunks.obj
 0001:0000953a       ___acrt_MessageBoxW@16     1000a53a f   libucrt:winapi_thunks.obj
 0001:00009583       ___acrt_can_show_message_box 1000a583 f   libucrt:winapi_thunks.obj
 0001:0000959c       ___acrt_get_parent_window  1000a59c f   libucrt:winapi_thunks.obj
 0001:0000961b       ___acrt_initialize_winapi_thunks 1000a61b f   libucrt:winapi_thunks.obj
 0001:00009641       ___acrt_is_interactive     1000a641 f   libucrt:winapi_thunks.obj
 0001:000096e7       ___acrt_is_packaged_app    1000a6e7 f   libucrt:winapi_thunks.obj
 0001:0000976e       ___acrt_uninitialize_winapi_thunks 1000a76e f   libucrt:winapi_thunks.obj
 0001:000097a4       ??$?RV<lambda_978dc153c237d78434369da87b74ff60>@@AAV<lambda_ad1ced32f4ac17aa236e5ef05d6b3b7c>@@V<lambda_4a8533e2866a575feecb8298ce776b0d>@@@?$__crt_seh_guarded_call@X@@QAEX$$QAV<lambda_978dc153c237d78434369da87b74ff60>@@AAV<lambda_ad1ced32f4ac17aa236e5ef05d6b3b7c>@@$$QAV<lambda_4a8533e2866a575feecb8298ce776b0d>@@@Z 1000a7a4 f i libucrt:mbctype.obj
 0001:000097e7       ??$__acrt_lock_and_call@V<lambda_ad1ced32f4ac17aa236e5ef05d6b3b7c>@@@@YAXW4__acrt_lock_id@@$$QAV<lambda_ad1ced32f4ac17aa236e5ef05d6b3b7c>@@@Z 1000a7e7 f i libucrt:mbctype.obj
 0001:00009c7e       ___acrt_initialize_multibyte 1000ac7e f   libucrt:mbctype.obj
 0001:00009c9c       ___acrt_update_thread_multibyte_data 1000ac9c f   libucrt:mbctype.obj
 0001:00009d3e       __setmbcp_nolock           1000ad3e f   libucrt:mbctype.obj
 0001:00009f66       ___dcrt_get_narrow_environment_from_os 1000af66 f   libucrt:get_environment_from_os.obj
 0001:00009fe9       __recalloc                 1000afe9 f   libucrt:recalloc.obj
 0001:00009ff4       __recalloc_base            1000aff4 f   libucrt:recalloc.obj
 0001:0000a061       ___acrt_initialize_heap    1000b061 f   libucrt:heap_handle.obj
 0001:0000a072       ___acrt_uninitialize_heap  1000b072 f   libucrt:heap_handle.obj
 0001:0000a1e8       ___acrt_initialize_lowio   1000b1e8 f   libucrt:ioinit.obj
 0001:0000a23e       ___acrt_uninitialize_lowio 1000b23e f   libucrt:ioinit.obj
 0001:0000a26a       ___acrt_initialize_command_line 1000b26a f   libucrt:argv_data.obj
 0001:0000a283       ___acrt_execute_initializers 1000b283 f   libucrt:shared_initialization.obj
 0001:0000a306       ___acrt_execute_uninitializers 1000b306 f   libucrt:shared_initialization.obj
 0001:0000a353       ___acrt_has_user_matherr   1000b353 f   libucrt:matherr.obj
 0001:0000a36c       ___acrt_initialize_user_matherr 1000b36c f   libucrt:matherr.obj
 0001:0000a380       ___acrt_invoke_user_matherr 1000b380 f   libucrt:matherr.obj
 0001:0000a3c9       ___acrt_stdio_begin_temporary_buffering_nolock 1000b3c9 f   libucrt:_sftbuf.obj
 0001:0000a47e       ___acrt_stdio_end_temporary_buffering_nolock 1000b47e f   libucrt:_sftbuf.obj
 0001:0000a4b7       __query_new_mode           1000b4b7 f   libucrt:new_mode.obj
 0001:0000a4bd       __isdigit_l                1000b4bd f i libucrt:_ctype.obj
 0001:0000a4f5       _isdigit                   1000b4f5 f i libucrt:_ctype.obj
 0001:0000a522       ??$make_c_string_character_source@_WPAPA_W@__crt_strtox@@YA?AV?$c_string_character_source@_W@0@QB_WQAPA_W@Z 1000b522 f i libucrt:strtox.obj
 0001:0000a53d       _wcstol                    1000b53d f   libucrt:strtox.obj
 0001:0000a569       __mbtowc_l                 1000b569 f   libucrt:mbtowc.obj
 0001:0000a663       _mbtowc                    1000b663 f   libucrt:mbtowc.obj
 0001:0000a67d       __wctomb_s_l               1000b67d f   libucrt:wctomb.obj
 0001:0000a79e       _wctomb_s                  1000b79e f   libucrt:wctomb.obj
 0001:0000a7bb       _wcsnlen                   1000b7bb f   libucrt:strnlen.obj
 0001:0000a972       ?__acrt_fp_classify@@YA?AW4__acrt_fp_class@@ABN@Z 1000b972 f i libucrt:cvt.obj
 0001:0000a9de       ?__acrt_fp_is_negative@@YA_NABN@Z 1000b9de f i libucrt:cvt.obj
 0001:0000b23d       ___acrt_fp_format          1000c23d f   libucrt:cvt.obj
 0001:0000b3b9       __fputwc_nolock            1000c3b9 f   libucrt:fputwc.obj
 0001:0000b4df       __fileno                   1000c4df f   libucrt:fileno.obj
 0001:0000b505       __fputc_nolock             1000c505 f   libucrt:fputc.obj
 0001:0000b52e       __get_printf_count_output  1000c52e f   libucrt:printf_count_output.obj
 0001:0000b543       ___pctype_func             1000c543 f   libucrt:ctype.obj
 0001:0000b569       _iswctype                  1000c569 f   libucrt:iswctype.obj
 0001:0000b5c8       __isctype_l                1000c5c8 f   libucrt:isctype.obj
 0001:0000b69a       __fcloseall                1000c69a f   libucrt:closeall.obj
 0001:0000b73a       ___acrt_stdio_free_buffer_nolock 1000c73a f   libucrt:_freebuf.obj
 0001:0000b778       ??$?RV<lambda_61cee617f5178ae960314fd4d05640a0>@@AAV<lambda_6978c1fb23f02e42e1d9e99668cc68aa>@@V<lambda_9cd88cf8ad10232537feb2133f08c833>@@@?$__crt_seh_guarded_call@H@@QAEH$$QAV<lambda_61cee617f5178ae960314fd4d05640a0>@@AAV<lambda_6978c1fb23f02e42e1d9e99668cc68aa>@@$$QAV<lambda_9cd88cf8ad10232537feb2133f08c833>@@@Z 1000c778 f i libucrt:commit.obj
 0001:0000b810       ??$__acrt_lowio_lock_fh_and_call@V<lambda_6978c1fb23f02e42e1d9e99668cc68aa>@@@@YAHH$$QAV<lambda_6978c1fb23f02e42e1d9e99668cc68aa>@@@Z 1000c810 f i libucrt:commit.obj
 0001:0000b838       __commit                   1000c838 f   libucrt:commit.obj
 0001:0000be37       __write                    1000ce37 f   libucrt:write.obj
 0001:0000bf22       __write_nolock             1000cf22 f   libucrt:write.obj
 0001:0000c12e       __isleadbyte_l             1000d12e f i libucrt:_wctype.obj
 0001:0000c384       ___acrt_LCMapStringA       1000d384 f   libucrt:lcmapstringa.obj
 0001:0000c3cf       __freea_crt                1000d3cf f i libucrt:lcmapstringa.obj
 0001:0000c3ef       ___acrt_add_locale_ref     1000d3ef f   libucrt:locale_refcounting.obj
 0001:0000c46c       ___acrt_free_locale        1000d46c f   libucrt:locale_refcounting.obj
 0001:0000c5b6       ___acrt_locale_add_lc_time_reference 1000d5b6 f   libucrt:locale_refcounting.obj
 0001:0000c5df       ___acrt_locale_free_lc_time_if_unreferenced 1000d5df f   libucrt:locale_refcounting.obj
 0001:0000c60f       ___acrt_locale_release_lc_time_reference 1000d60f f   libucrt:locale_refcounting.obj
 0001:0000c638       ___acrt_release_locale_ref 1000d638 f   libucrt:locale_refcounting.obj
 0001:0000c6b9       ___acrt_update_thread_locale_data 1000d6b9 f   libucrt:locale_refcounting.obj
 0001:0000c730       __updatetlocinfoEx_nolock  1000d730 f   libucrt:locale_refcounting.obj
 0001:0000c780       ___acrt_locale_free_monetary 1000d780 f   libucrt:initmon.obj
 0001:0000c87e       ___acrt_locale_free_numeric 1000d87e f   libucrt:initnum.obj
 0001:0000c923       ___acrt_locale_free_time   1000d923 f   libucrt:inittime.obj
 0001:0000ca07       ___acrt_GetStringTypeA     1000da07 f   libucrt:getstringtypea.obj
 0001:0000cbe0       ___acrt_DownlevelLocaleNameToLCID 1000dbe0 f   libucrt:lcidtoname_downlevel.obj
 0001:0000cc1b       __msize                    1000dc1b f   libucrt:msize.obj
 0001:0000cc4e       __realloc_base             1000dc4e f   libucrt:realloc_base.obj
 0001:0000ccb7       ___acrt_lowio_create_handle_array 1000dcb7 f   libucrt:osfinfo.obj
 0001:0000cd31       ___acrt_lowio_destroy_handle_array 1000dd31 f   libucrt:osfinfo.obj
 0001:0000cd66       ___acrt_lowio_ensure_fh_exists 1000dd66 f   libucrt:osfinfo.obj
 0001:0000cdfe       ___acrt_lowio_lock_fh      1000ddfe f   libucrt:osfinfo.obj
 0001:0000ce21       ___acrt_lowio_unlock_fh    1000de21 f   libucrt:osfinfo.obj
 0001:0000ce44       __free_osfhnd              1000de44 f   libucrt:osfinfo.obj
 0001:0000ced5       __get_osfhandle            1000ded5 f   libucrt:osfinfo.obj
 0001:0000cf3f       __isatty                   1000df3f f   libucrt:isatty.obj
 0001:0000cf95       ___acrt_fp_strflt_to_string 1000df95 f   libucrt:_fptostr.obj
 0001:0000d051       ??0scoped_fp_state_reset@?A0x3568b024@@QAE@XZ 1000e051 f i libucrt:cfout.obj
 0001:0000d080       ?divide@__crt_strtox@@YA_KAAUbig_integer@1@ABU21@@Z 1000e080 f i libucrt:cfout.obj
 0001:0000d52e       ___acrt_fltout             1000e52e f   libucrt:cfout.obj
 0001:0000ec90       ___acrt_stdio_flush_and_write_narrow_nolock 1000fc90 f   libucrt:_flsbuf.obj
 0001:0000ec9b       ___acrt_stdio_flush_and_write_wide_nolock 1000fc9b f   libucrt:_flsbuf.obj
 0001:0000eca6       __fclose_nolock            1000fca6 f   libucrt:fclose.obj
 0001:0000ed1c       _fclose                    1000fd1c f   libucrt:fclose.obj
 0001:0000ef1f       __lseeki64                 1000ff1f f   libucrt:lseek.obj
 0001:0000ef3a       __lseeki64_nolock          1000ff3a f   libucrt:lseek.obj
 0001:0000ef55       __putwch_nolock            1000ff55 f   libucrt:putwch.obj
 0001:0000ef9a       ___strncnt                 1000ff9a f   libucrt:strncnt.obj
 0001:0000efb6       _fegetenv                  1000ffb6 f   libucrt:fegetenv.obj
 0001:0000efd3       _fesetenv                  1000ffd3 f   libucrt:fesetenv.obj
 0001:0000f01c       _feholdexcept              1001001c f   libucrt:feholdexcept.obj
 0001:0000f070       _log10                     10010070 f   libucrt:log10.obj
 0001:0000f0b0       __CIlog10                  100100b0 f   libucrt:log10.obj
 0001:0000f0eb       __CIlog10_default          100100eb f   libucrt:log10.obj
 0001:0000f0ff       __log10_default            100100ff     libucrt:log10.obj
 0001:0000f1c0       _ceil                      100101c0 f   libucrt:ceil_pentium4.obj
 0001:0000f200       __ceil_pentium4            10010200 f   libucrt:ceil_pentium4.obj
 0001:0000f2dd       ___acrt_stdio_allocate_buffer_nolock 100102dd f   libucrt:_getbuf.obj
 0001:0000f33a       ??$?RV<lambda_123407a5e2ac06da108355a851863b7a>@@AAV<lambda_2fe9b910cf3cbf4a0ab98a02ba45b3ec>@@V<lambda_ae55bdf541ad94d75914d381c370e64d>@@@?$__crt_seh_guarded_call@H@@QAEH$$QAV<lambda_123407a5e2ac06da108355a851863b7a>@@AAV<lambda_2fe9b910cf3cbf4a0ab98a02ba45b3ec>@@$$QAV<lambda_ae55bdf541ad94d75914d381c370e64d>@@@Z 1001033a f i libucrt:close.obj
 0001:0000f3bc       ??$__acrt_lowio_lock_fh_and_call@V<lambda_2fe9b910cf3cbf4a0ab98a02ba45b3ec>@@@@YAHH$$QAV<lambda_2fe9b910cf3cbf4a0ab98a02ba45b3ec>@@@Z 100103bc f i libucrt:close.obj
 0001:0000f3e4       __close                    100103e4 f   libucrt:close.obj
 0001:0000f463       __close_nolock             10010463 f   libucrt:close.obj
 0001:0000f4ff       ?__acrt_stdio_free_stream@@YAXV__crt_stdio_stream@@@Z 100104ff f   libucrt:stream.obj
 0001:0000f53a       ___dcrt_lowio_initialize_console_output 1001053a f   libucrt:initcon.obj
 0001:0000f559       ___dcrt_terminate_console_output 10010559 f   libucrt:initcon.obj
 0001:0000f570       ___ascii_strnicmp          10010570 f   libucrt:_strnicm.obj
 0001:0000f874       __getfpcontrolword         10010874 f   libucrt:_fenvutils.obj
 0001:0000f8b7       __getfpstatusword          100108b7 f   libucrt:_fenvutils.obj
 0001:0000f95f       __setfpcontrolword         1001095f f   libucrt:_fenvutils.obj
 0001:0000f9df       __setfpstatusword          100109df f   libucrt:_fenvutils.obj
 0001:0000fa5f       __clearfp                  10010a5f f   libucrt:ieee87.obj
 0001:0000fb3d       ___acrt_initialize_sse2    10010b3d f   libucrt:mathfcns.obj
 0001:0000fb50       __CIlog10_pentium4         10010b50 f   libucrt:log10_pentium4.obj
 0001:0000fb68       __log10_pentium4           10010b68     libucrt:log10_pentium4.obj
 0001:0000fdf1       __fFEXP                    10010df1     libucrt:87tran.obj
 0001:0000fe48       __rtinfpopse               10010e48     libucrt:87tran.obj
 0001:0000fe4a       __rtinfnpopse              10010e4a     libucrt:87tran.obj
 0001:0000fe5a       __fFLN                     10010e5a     libucrt:87tran.obj
 0001:0000ff0f       __rtinfpop                 10010f0f     libucrt:87tran.obj
 0001:0000ff11       __rtinfnpop                10010f11     libucrt:87tran.obj
 0001:0000ff2e       __ffexpm1                  10010f2e     libucrt:87tran.obj
 0001:0000ffe0       __trandisp1                10010fe0 f   libucrt:87disp.obj
 0001:00010047       __trandisp2                10011047 f   libucrt:87disp.obj
 0001:000100d3       __rttospopde               100110d3     libucrt:87disp.obj
 0001:000100d8       __rttospop                 100110d8     libucrt:87disp.obj
 0001:000100da       __rtnospop                 100110da     libucrt:87disp.obj
 0001:000100dc       __rttosnpop                100110dc     libucrt:87disp.obj
 0001:000100dd       __rtnospopde               100110dd     libucrt:87disp.obj
 0001:000100e4       __rtzeropop                100110e4     libucrt:87disp.obj
 0001:000100e6       __rtzeronpop               100110e6     libucrt:87disp.obj
 0001:000100eb       __rtzerospop               100110eb     libucrt:87disp.obj
 0001:000100f8       __rtonepop                 100110f8     libucrt:87disp.obj
 0001:000100fa       __rtonenpop                100110fa     libucrt:87disp.obj
 0001:000100ff       __tosnan1                  100110ff     libucrt:87disp.obj
 0001:0001012a       __nosnan2                  1001112a     libucrt:87disp.obj
 0001:0001012c       __tosnan2                  1001112c     libucrt:87disp.obj
 0001:00010154       __nan2                     10011154     libucrt:87disp.obj
 0001:00010193       __rtindfpop                10011193     libucrt:87disp.obj
 0001:00010195       __rtindfnpop               10011195     libucrt:87disp.obj
 0001:000101a6       __rttosnpopde              100111a6     libucrt:87disp.obj
 0001:000101b0       __rtatan2inf               100111b0     libucrt:87disp.obj
 0001:000101cd       __rtchsifneg               100111cd     libucrt:87disp.obj
 0001:000101e0       __twoToTOS                 100111e0 f   libucrt:common.obj
 0001:000101f5       __load_CW                  100111f5 f   libucrt:common.obj
 0001:0001020c       __convertTOStoQNaN         1001120c f   libucrt:common.obj
 0001:00010225       __fload_withFB             10011225 f   libucrt:common.obj
 0001:00010268       __checkTOS_withFB          10011268 f   libucrt:common.obj
 0001:0001027e       __fast_exit                1001127e f   libucrt:common.obj
 0001:0001028b       __math_exit                1001128b f   libucrt:common.obj
 0001:000102b5       __check_overflow_exit      100112b5 f   libucrt:common.obj
 0001:000102c9       __check_range_exit         100112c9 f   libucrt:common.obj
 0001:00010370       __startTwoArgErrorHandling 10011370 f   libucrt:genexcep.obj
 0001:00010387       __startOneArgErrorHandling 10011387 f   libucrt:genexcep.obj
 0001:000103c3       ___libm_error_support      100113c3 f   libucrt:libm_error.obj
 0001:000105db       __ceil_default             100115db f   libucrt:ceil.obj
 0001:00010694       __clrfp                    10011694 f   libucrt:fpctrl.obj
 0001:000106a7       __ctrlfp                   100116a7 f   libucrt:fpctrl.obj
 0001:000106d3       __set_statfp               100116d3 f   libucrt:fpctrl.obj
 0001:0001072e       __statfp                   1001172e f   libucrt:fpctrl.obj
 0001:00010740       __d_inttype                10011740 f   libucrt:powhlp.obj
 0001:000107aa       __powhlp                   100117aa f   libucrt:powhlp.obj
 0001:000108d5       __87except                 100118d5 f   libucrt:87except.obj
 0001:000109e0       __frnd                     100119e0 f   libucrt:frnd.obj
 0001:000109f6       __errcode                  100119f6 f   libucrt:fpexcept.obj
 0001:00010a2a       __except1                  10011a2a f   libucrt:fpexcept.obj
 0001:00010af8       __handle_exc               10011af8 f   libucrt:fpexcept.obj
 0001:00010cd8       __raise_exc                10011cd8 f   libucrt:fpexcept.obj
 0001:00010cfb       __raise_exc_ex             10011cfb f   libucrt:fpexcept.obj
 0001:00010fec       __set_errno_from_matherr   10011fec f   libucrt:fpexcept.obj
 0001:0001101b       __umatherr                 1001201b f   libucrt:fpexcept.obj
 0001:000110bd       __decomp                   100120bd f   libucrt:util.obj
 0001:00011191       __set_exp                  10012191 f   libucrt:util.obj
 0001:000111c0       __sptype                   100121c0 f   libucrt:util.obj
 0001:0001121e       __fpclass                  1001221e f   libucrt:ieeemisc.obj
 0001:000112c2       _IsProcessorFeaturePresent@4 100122c2 f   kernel32:KERNEL32.dll
 0001:000112c8       _RtlUnwind@16              100122c8 f   kernel32:KERNEL32.dll
 0001:000112ce       _SystemFunction036@8       100122ce f   advapi32:ADVAPI32.dll
 0001:000112d4       ?DloadAcquireSectionWriteAccess@@YGXXZ 100122d4 f i DelayImp:delayhlp.obj
 0001:00011307       ?DloadGetSRWLockFunctionPointers@@YGEXZ 10012307 f i DelayImp:delayhlp.obj
 0001:00011382       ?DloadLock@@YGXXZ          10012382 f i DelayImp:delayhlp.obj
 0001:000113df       ?DloadMakePermanentImageCommit@@YGXPAXK@Z 100123df f i DelayImp:delayhlp.obj
 0001:00011451       ?DloadObtainSection@@YGPAXPAK0@Z 10012451 f i DelayImp:delayhlp.obj
 0001:000114d4       ?DloadProtectSection@@YGXKPAK@Z 100124d4 f i DelayImp:delayhlp.obj
 0001:00011544       ?DloadReleaseSectionWriteAccess@@YGXXZ 10012544 f i DelayImp:delayhlp.obj
 0001:0001157c       ?DloadUnlock@@YGXXZ        1001257c f i DelayImp:delayhlp.obj
 0001:000115c6       ___delayLoadHelper2@8      100125c6 f   DelayImp:delayhlp.obj
 0001:00011850       __FindPESection            10012850 f   LIBCMT:pesect.obj
 0001:000118a0       __IsNonwritableInCurrentImage 100128a0 f   LIBCMT:pesect.obj
 0001:00011960       __ValidateImageBase        10012960 f   LIBCMT:pesect.obj
 0001:000119a0       __aulldvrm                 100129a0 f   LIBCMT:ulldvrm.obj
 0001:00011a40       __SEH_prolog4_GS           10012a40 f   LIBCMT:_sehprolg4gs_.obj
 0001:00011a89       __SEH_epilog4_GS           10012a89 f   LIBCMT:_sehprolg4gs_.obj
 0001:00011aa0       __allmul                   10012aa0 f   LIBCMT:llmul.obj
 0001:00011ae0       __alldvrm                  10012ae0 f   LIBCMT:lldvrm.obj
 0001:00011bc0       __aullshr                  10012bc0 f   LIBCMT:ullshr.obj
 0001:00011be0       __chkstk                   10012be0 f   LIBCMT:chkstk.obj
 0001:00011be0       __alloca_probe             10012be0 f   LIBCMT:chkstk.obj
 0001:00011c10       __alloca_probe_16          10012c10 f   LIBCMT:alloca16.obj
 0001:00011c26       __alloca_probe_8           10012c26     LIBCMT:alloca16.obj
 0001:00011c40       __allshl                   10012c40 f   LIBCMT:llshl.obj
 0001:00011c60       __ftol2_sse                10012c60 f   LIBCMT:_ftol2_.obj
 0001:00011c69       __ftol2_pentium4           10012c69 f   LIBCMT:_ftol2_.obj
 0001:00011c7c       __ftol2_sse_excpt          10012c7c f   LIBCMT:_ftol2_.obj
 0001:00011ca0       __ftol2                    10012ca0 f   LIBCMT:_ftol2_.obj
 0001:00011d20       _memcpy                    10012d20 f   libvcruntime:memcpy.obj
 0001:000122a0       _strchr                    100132a0 f   libvcruntime:strchr.obj
 0001:0001230e       ___from_strstr_to_strchr   1001330e     libvcruntime:strchr.obj
 0001:000123d0       _memmove                   100133d0 f   libvcruntime:memmove.obj
 0001:00012950       _strrchr                   10013950 f   libvcruntime:strrchr.obj
 0002:00000000       __imp__SystemFunction036@8 10014000     advapi32:ADVAPI32.dll
 0002:00000004       \177ADVAPI32_NULL_THUNK_DATA 10014004     advapi32:ADVAPI32.dll
 0002:00000008       __imp__UnhandledExceptionFilter@4 10014008     kernel32:KERNEL32.dll
 0002:0000000c       __imp__SetUnhandledExceptionFilter@4 1001400c     kernel32:KERNEL32.dll
 0002:00000010       __imp__GetCurrentProcess@0 10014010     kernel32:KERNEL32.dll
 0002:00000014       __imp__TerminateProcess@8  10014014     kernel32:KERNEL32.dll
 0002:00000018       __imp__IsProcessorFeaturePresent@4 10014018     kernel32:KERNEL32.dll
 0002:0000001c       __imp__QueryPerformanceCounter@4 1001401c     kernel32:KERNEL32.dll
 0002:00000020       __imp__GetCurrentProcessId@0 10014020     kernel32:KERNEL32.dll
 0002:00000024       __imp__GetCurrentThreadId@0 10014024     kernel32:KERNEL32.dll
 0002:00000028       __imp__GetSystemTimeAsFileTime@4 10014028     kernel32:KERNEL32.dll
 0002:0000002c       __imp__InitializeSListHead@4 1001402c     kernel32:KERNEL32.dll
 0002:00000030       __imp__IsDebuggerPresent@0 10014030     kernel32:KERNEL32.dll
 0002:00000034       __imp__GetStartupInfoW@4   10014034     kernel32:KERNEL32.dll
 0002:00000038       __imp__GetModuleHandleW@4  10014038     kernel32:KERNEL32.dll
 0002:0000003c       __imp__GetLastError@0      1001403c     kernel32:KERNEL32.dll
 0002:00000040       __imp__GetModuleFileNameW@12 10014040     kernel32:KERNEL32.dll
 0002:00000044       __imp__RaiseException@16   10014044     kernel32:KERNEL32.dll
 0002:00000048       __imp__InterlockedFlushSList@4 10014048     kernel32:KERNEL32.dll
 0002:0000004c       __imp__InitializeCriticalSectionAndSpinCount@8 1001404c     kernel32:KERNEL32.dll
 0002:00000050       __imp__TlsAlloc@0          10014050     kernel32:KERNEL32.dll
 0002:00000054       __imp__TlsGetValue@4       10014054     kernel32:KERNEL32.dll
 0002:00000058       __imp__TlsSetValue@8       10014058     kernel32:KERNEL32.dll
 0002:0000005c       __imp__TlsFree@4           1001405c     kernel32:KERNEL32.dll
 0002:00000060       __imp__FreeLibrary@4       10014060     kernel32:KERNEL32.dll
 0002:00000064       __imp__GetProcAddress@8    10014064     kernel32:KERNEL32.dll
 0002:00000068       __imp__LoadLibraryExW@12   10014068     kernel32:KERNEL32.dll
 0002:0000006c       __imp__RtlUnwind@16        1001406c     kernel32:KERNEL32.dll
 0002:00000070       __imp__SetLastError@4      10014070     kernel32:KERNEL32.dll
 0002:00000074       __imp__EnterCriticalSection@4 10014074     kernel32:KERNEL32.dll
 0002:00000078       __imp__LeaveCriticalSection@4 10014078     kernel32:KERNEL32.dll
 0002:0000007c       __imp__DeleteCriticalSection@4 1001407c     kernel32:KERNEL32.dll
 0002:00000080       __imp__GetStdHandle@4      10014080     kernel32:KERNEL32.dll
 0002:00000084       __imp__GetFileType@4       10014084     kernel32:KERNEL32.dll
 0002:00000088       __imp__GetModuleHandleExW@12 10014088     kernel32:KERNEL32.dll
 0002:0000008c       __imp__WriteConsoleW@20    1001408c     kernel32:KERNEL32.dll
 0002:00000090       __imp__ExitProcess@4       10014090     kernel32:KERNEL32.dll
 0002:00000094       __imp__MultiByteToWideChar@24 10014094     kernel32:KERNEL32.dll
 0002:00000098       __imp__WideCharToMultiByte@32 10014098     kernel32:KERNEL32.dll
 0002:0000009c       __imp__HeapAlloc@12        1001409c     kernel32:KERNEL32.dll
 0002:000000a0       __imp__WriteFile@20        100140a0     kernel32:KERNEL32.dll
 0002:000000a4       __imp__OutputDebugStringW@4 100140a4     kernel32:KERNEL32.dll
 0002:000000a8       __imp__CloseHandle@4       100140a8     kernel32:KERNEL32.dll
 0002:000000ac       __imp__WaitForSingleObjectEx@12 100140ac     kernel32:KERNEL32.dll
 0002:000000b0       __imp__CreateThread@24     100140b0     kernel32:KERNEL32.dll
 0002:000000b4       __imp__GetACP@0            100140b4     kernel32:KERNEL32.dll
 0002:000000b8       __imp__LCMapStringW@24     100140b8     kernel32:KERNEL32.dll
 0002:000000bc       __imp__IsValidCodePage@4   100140bc     kernel32:KERNEL32.dll
 0002:000000c0       __imp__GetOEMCP@0          100140c0     kernel32:KERNEL32.dll
 0002:000000c4       __imp__GetCPInfo@8         100140c4     kernel32:KERNEL32.dll
 0002:000000c8       __imp__GetEnvironmentStringsW@0 100140c8     kernel32:KERNEL32.dll
 0002:000000cc       __imp__FreeEnvironmentStringsW@4 100140cc     kernel32:KERNEL32.dll
 0002:000000d0       __imp__GetProcessHeap@0    100140d0     kernel32:KERNEL32.dll
 0002:000000d4       __imp__GetCommandLineA@0   100140d4     kernel32:KERNEL32.dll
 0002:000000d8       __imp__GetCommandLineW@0   100140d8     kernel32:KERNEL32.dll
 0002:000000dc       __imp__GetStringTypeW@16   100140dc     kernel32:KERNEL32.dll
 0002:000000e0       __imp__FlushFileBuffers@4  100140e0     kernel32:KERNEL32.dll
 0002:000000e4       __imp__GetConsoleCP@0      100140e4     kernel32:KERNEL32.dll
 0002:000000e8       __imp__GetConsoleMode@8    100140e8     kernel32:KERNEL32.dll
 0002:000000ec       __imp__HeapSize@12         100140ec     kernel32:KERNEL32.dll
 0002:000000f0       __imp__HeapReAlloc@16      100140f0     kernel32:KERNEL32.dll
 0002:000000f4       __imp__SetStdHandle@8      100140f4     kernel32:KERNEL32.dll
 0002:000000f8       __imp__SetFilePointerEx@20 100140f8     kernel32:KERNEL32.dll
 0002:000000fc       __imp__CreateFileW@28      100140fc     kernel32:KERNEL32.dll
 0002:00000100       __imp__DecodePointer@4     10014100     kernel32:KERNEL32.dll
 0002:00000104       __imp__HeapFree@12         10014104     kernel32:KERNEL32.dll
 0002:00000108       __imp__GetModuleHandleA@4  10014108     kernel32:KERNEL32.dll
 0002:0000010c       __imp__GetSystemInfo@4     1001410c     kernel32:KERNEL32.dll
 0002:00000110       __imp__VirtualProtect@16   10014110     kernel32:KERNEL32.dll
 0002:00000114       __imp__VirtualQuery@12     10014114     kernel32:KERNEL32.dll
 0002:00000118       __imp__LoadLibraryExA@12   10014118     kernel32:KERNEL32.dll
 0002:0000011c       \177KERNEL32_NULL_THUNK_DATA 1001411c     kernel32:KERNEL32.dll
 0002:00000120       ___guard_check_icall_fptr  10014120     LIBCMT:guard_support.obj
 0002:00000124       ___xc_a                    10014124     LIBCMT:initializers.obj
 0002:00000128       __register_bufferutil_     10014128     bufferutil.obj
 0002:0000012c       ___xc_z                    1001412c     LIBCMT:initializers.obj
 0002:00000130       ___xi_a                    10014130     LIBCMT:initializers.obj
 0002:00000134       ___acrt_stdio_initializer  10014134     libucrt:stdio_initializer.obj
 0002:00000138       ___acrt_multibyte_initializer 10014138     libucrt:multibyte_initializer.obj
 0002:0000013c       ___acrt_tran_sse2_initializer 1001413c     libucrt:sse2_initializer.obj
 0002:00000140       ___xi_z                    10014140     LIBCMT:initializers.obj
 0002:00000144       ___xp_a                    10014144     LIBCMT:initializers.obj
 0002:00000148       ___acrt_locale_terminator  10014148     libucrt:locale_initializer.obj
 0002:0000014c       ___dcrt_console_output_terminator 1001414c     libucrt:console_output_initializer.obj
 0002:00000150       ___acrt_stdio_terminator   10014150     libucrt:stdio_initializer.obj
 0002:00000154       ___xp_z                    10014154     LIBCMT:initializers.obj
 0002:00000158       ___xt_a                    10014158     LIBCMT:initializers.obj
 0002:0000015c       ___xt_z                    1001415c     LIBCMT:initializers.obj
 0002:00000160       __sz_node_exe              10014160     node:node.exe
 0002:0000016c       __pDefaultRawDllMain       1001416c     LIBCMT:dll_dllmain.obj
 0002:0000016c       __pRawDllMain              1001416c     LIBCMT:dll_dllmain.obj
 0002:0000017c       ??_7exception@std@@6B@     1001417c     LIBCMT:throw_bad_alloc.obj
 0002:00000184       ??_C@_0BC@EOODALEL@Unknown?5exception?$AA@ 10014184     LIBCMT:throw_bad_alloc.obj
 0002:0000019c       ??_7bad_alloc@std@@6B@     1001419c     LIBCMT:throw_bad_alloc.obj
 0002:000001a4       ??_C@_0P@GHFPNOJB@bad?5allocation?$AA@ 100141a4     LIBCMT:throw_bad_alloc.obj
 0002:000001b8       ??_7bad_array_new_length@std@@6B@ 100141b8     LIBCMT:throw_bad_alloc.obj
 0002:000001c0       ??_C@_0BF@KINCDENJ@bad?5array?5new?5length?$AA@ 100141c0     LIBCMT:throw_bad_alloc.obj
 0002:000001dc       ??_7type_info@@6B@         100141dc     LIBCMT:std_type_info_static.obj
 0002:000001e0       __Microsoft_CRTProvider    100141e0     libvcruntime:telemetry.obj
 0002:000001e4       ??_C@_00CNPNBAHC@?$AA@     100141e4     libvcruntime:telemetry.obj
 0002:000001e8       ??_C@_11LOCGONAA@?$AA?$AA@ 100141e8     libvcruntime:telemetry.obj
 0002:000001ec       ??_C@_0O@JEOPJOMI@Main?5Invoked?4?$AA@ 100141ec     libvcruntime:telemetry.obj
 0002:000001fc       ??_C@_0P@NEAEIBDO@Main?5Returned?4?$AA@ 100141fc     libvcruntime:telemetry.obj
 0002:0000023c       ??_C@_1BC@DNHGCMLG@?$AAa?$AAd?$AAv?$AAa?$AAp?$AAi?$AA3?$AA2?$AA?$AA@ 1001423c     libvcruntime:winapi_downlevel.obj
 0002:00000250       ??_C@_1DM@KHCHBNEB@?$AAa?$AAp?$AAi?$AA?9?$AAm?$AAs?$AA?9?$AAw?$AAi?$AAn?$AA?9?$AAc?$AAo?$AAr?$AAe?$AA?9?$AAf?$AAi?$AAb?$AAe?$AAr?$AAs?$AA?9?$AAl?$AA1?$AA?9?$AA1?$AA?9?$AA1?$AA?$AA@ 10014250     libvcruntime:winapi_downlevel.obj
 0002:0000028c       ??_C@_1DK@LPPGFMPP@?$AAa?$AAp?$AAi?$AA?9?$AAm?$AAs?$AA?9?$AAw?$AAi?$AAn?$AA?9?$AAc?$AAo?$AAr?$AAe?$AA?9?$AAs?$AAy?$AAn?$AAc?$AAh?$AA?9?$AAl?$AA1?$AA?9?$AA2?$AA?9?$AA0?$AA?$AA@ 1001428c     libvcruntime:winapi_downlevel.obj
 0002:000002c8       ??_C@_1BC@GDMECMAK@?$AAk?$AAe?$AAr?$AAn?$AAe?$AAl?$AA3?$AA2?$AA?$AA@ 100142c8     libvcruntime:winapi_downlevel.obj
 0002:000002e0       ??_C@_0O@BAMBGLIE@EventRegister?$AA@ 100142e0     libvcruntime:winapi_downlevel.obj
 0002:000002f4       ??_C@_0BE@BJEEGHGK@EventSetInformation?$AA@ 100142f4     libvcruntime:winapi_downlevel.obj
 0002:0000030c       ??_C@_0BA@FAKLIPIC@EventUnregister?$AA@ 1001430c     libvcruntime:winapi_downlevel.obj
 0002:00000320       ??_C@_0BD@PKLHJPHD@EventWriteTransfer?$AA@ 10014320     libvcruntime:winapi_downlevel.obj
 0002:0000033c       ??_C@_08KNHFBNJ@FlsAlloc?$AA@ 1001433c     libvcruntime:winapi_downlevel.obj
 0002:00000350       ??_C@_07PEJMOBNF@FlsFree?$AA@ 10014350     libvcruntime:winapi_downlevel.obj
 0002:00000360       ??_C@_0M@GDNOONDI@FlsGetValue?$AA@ 10014360     libvcruntime:winapi_downlevel.obj
 0002:00000374       ??_C@_0M@JCPCPOEF@FlsSetValue?$AA@ 10014374     libvcruntime:winapi_downlevel.obj
 0002:00000388       ??_C@_0BM@HCFOFFN@InitializeCriticalSectionEx?$AA@ 10014388     libvcruntime:winapi_downlevel.obj
 0002:00000538       ??_C@_08EHJDFFNH@__based?$CI?$AA@ 10014538     libvcruntime:undname.obj
 0002:00000544       ??_C@_07KOLFKCDI@__cdecl?$AA@ 10014544     libvcruntime:undname.obj
 0002:0000054c       ??_C@_08GHMPAG@__pascal?$AA@ 1001454c     libvcruntime:undname.obj
 0002:00000558       ??_C@_09IFJBGAPI@__stdcall?$AA@ 10014558     libvcruntime:undname.obj
 0002:00000564       ??_C@_0L@NPHFGOKO@__thiscall?$AA@ 10014564     libvcruntime:undname.obj
 0002:00000570       ??_C@_0L@JMKHOMEK@__fastcall?$AA@ 10014570     libvcruntime:undname.obj
 0002:0000057c       ??_C@_0N@BCKKPABJ@__vectorcall?$AA@ 1001457c     libvcruntime:undname.obj
 0002:0000058c       ??_C@_09HIJEGCPM@__clrcall?$AA@ 1001458c     libvcruntime:undname.obj
 0002:00000598       ??_C@_06GHPCKEAG@__eabi?$AA@ 10014598     libvcruntime:undname.obj
 0002:000005a0       ??_C@_07JOMMBBKO@__ptr64?$AA@ 100145a0     libvcruntime:undname.obj
 0002:000005a8       ??_C@_0L@PILCLIHE@__restrict?$AA@ 100145a8     libvcruntime:undname.obj
 0002:000005b4       ??_C@_0M@GFIIJFMG@__unaligned?$AA@ 100145b4     libvcruntime:undname.obj
 0002:000005c0       ??_C@_09DHDLOLLB@restrict?$CI?$AA@ 100145c0     libvcruntime:undname.obj
 0002:000005cc       ??_C@_04NIHEBCM@?5new?$AA@ 100145cc     libvcruntime:undname.obj
 0002:000005d4       ??_C@_07FPCDHGMM@?5delete?$AA@ 100145d4     libvcruntime:undname.obj
 0002:000005dc       ??_C@_01NEMOKFLO@?$DN?$AA@ 100145dc     libvcruntime:undname.obj
 0002:000005e0       ??_C@_02GPIOPFAK@?$DO?$DO?$AA@ 100145e0     libvcruntime:undname.obj
 0002:000005e4       ??_C@_02FODMEDOG@?$DM?$DM?$AA@ 100145e4     libvcruntime:undname.obj
 0002:000005e8       ??_C@_01DCLJPIOD@?$CB?$AA@ 100145e8     libvcruntime:undname.obj
 0002:000005ec       ??_C@_02EGOFBIJA@?$DN?$DN?$AA@ 100145ec     libvcruntime:undname.obj
 0002:000005f0       ??_C@_02FDNJECIE@?$CB?$DN?$AA@ 100145f0     libvcruntime:undname.obj
 0002:000005f4       ??_C@_02GPECMEKF@?$FL?$FN?$AA@ 100145f4     libvcruntime:undname.obj
 0002:000005f8       ??_C@_08LHJFAFGD@operator?$AA@ 100145f8     libvcruntime:undname.obj
 0002:00000604       ??_C@_02HBOOOICD@?9?$DO?$AA@ 10014604     libvcruntime:undname.obj
 0002:00000608       ??_C@_01NBENCBCI@?$CK?$AA@ 10014608     libvcruntime:undname.obj
 0002:0000060c       ??_C@_02ECNGHCIF@?$CL?$CL?$AA@ 1001460c     libvcruntime:undname.obj
 0002:00000610       ??_C@_02BAABKJLB@?9?9?$AA@ 10014610     libvcruntime:undname.obj
 0002:00000614       ??_C@_01JOAMLHOP@?9?$AA@   10014614     libvcruntime:undname.obj
 0002:00000618       ??_C@_01MIFGBAGJ@?$CL?$AA@ 10014618     libvcruntime:undname.obj
 0002:0000061c       ??_C@_01HNPIGOCE@?$CG?$AA@ 1001461c     libvcruntime:undname.obj
 0002:00000620       ??_C@_03MNHNFDLC@?9?$DO?$CK?$AA@ 10014620     libvcruntime:undname.obj
 0002:00000624       ??_C@_01KMDKNFGN@?1?$AA@   10014624     libvcruntime:undname.obj
 0002:00000628       ??_C@_01FGNFDNOH@?$CF?$AA@ 10014628     libvcruntime:undname.obj
 0002:0000062c       ??_C@_01MNNFJEPP@?$DM?$AA@ 1001462c     libvcruntime:undname.obj
 0002:00000630       ??_C@_02EHCHHCKH@?$DM?$DN?$AA@ 10014630     libvcruntime:undname.obj
 0002:00000634       ??_C@_01PPODPGHN@?$DO?$AA@ 10014634     libvcruntime:undname.obj
 0002:00000638       ??_C@_02EEKDKGMJ@?$DO?$DN?$AA@ 10014638     libvcruntime:undname.obj
 0002:0000063c       ??_C@_01IHBHIGKO@?0?$AA@   1001463c     libvcruntime:undname.obj
 0002:00000640       ??_C@_02HCKGKOFO@?$CI?$CJ?$AA@ 10014640     libvcruntime:undname.obj
 0002:00000644       ??_C@_01PJKLJHI@?$HO?$AA@  10014644     libvcruntime:undname.obj
 0002:00000648       ??_C@_01JKBOJNNK@?$FO?$AA@ 10014648     libvcruntime:undname.obj
 0002:0000064c       ??_C@_01DNKMNLPK@?$HM?$AA@ 1001464c     libvcruntime:undname.obj
 0002:00000650       ??_C@_02PPKAJPJL@?$CG?$CG?$AA@ 10014650     libvcruntime:undname.obj
 0002:00000654       ??_C@_02NONPIBCD@?$HM?$HM?$AA@ 10014654     libvcruntime:undname.obj
 0002:00000658       ??_C@_02FPIMKNGF@?$CK?$DN?$AA@ 10014658     libvcruntime:undname.obj
 0002:0000065c       ??_C@_02FOEOMHFC@?$CL?$DN?$AA@ 1001465c     libvcruntime:undname.obj
 0002:00000660       ??_C@_02FKMDLLOA@?9?$DN?$AA@ 10014660     libvcruntime:undname.obj
 0002:00000664       ??_C@_02FJEHGPIO@?1?$DN?$AA@ 10014664     libvcruntime:undname.obj
 0002:00000668       ??_C@_02FENAOKFI@?$CF?$DN?$AA@ 10014668     libvcruntime:undname.obj
 0002:0000066c       ??_C@_03IKFCCPFF@?$DO?$DO?$DN?$AA@ 1001466c     libvcruntime:undname.obj
 0002:00000670       ??_C@_03CDNPDDLA@?$DM?$DM?$DN?$AA@ 10014670     libvcruntime:undname.obj
 0002:00000674       ??_C@_02FGJGFEAB@?$CG?$DN?$AA@ 10014674     libvcruntime:undname.obj
 0002:00000678       ??_C@_02DHLNPPGH@?$HM?$DN?$AA@ 10014678     libvcruntime:undname.obj
 0002:0000067c       ??_C@_02MHEGNOJ@?$FO?$DN?$AA@ 1001467c     libvcruntime:undname.obj
 0002:00000680       ??_C@_09IFPLHPGF@?$GAvftable?8?$AA@ 10014680     libvcruntime:undname.obj
 0002:0000068c       ??_C@_09BLBHBJP@?$GAvbtable?8?$AA@ 1001468c     libvcruntime:undname.obj
 0002:00000698       ??_C@_07FEEIOKP@?$GAvcall?8?$AA@ 10014698     libvcruntime:undname.obj
 0002:000006a0       ??_C@_08LLFFHHDJ@?$GAtypeof?8?$AA@ 100146a0     libvcruntime:undname.obj
 0002:000006ac       ??_C@_0BF@KDPPACIK@?$GAlocal?5static?5guard?8?$AA@ 100146ac     libvcruntime:undname.obj
 0002:000006c4       ??_C@_08OBABFOLI@?$GAstring?8?$AA@ 100146c4     libvcruntime:undname.obj
 0002:000006d0       ??_C@_0BD@JDLKDPAB@?$GAvbase?5destructor?8?$AA@ 100146d0     libvcruntime:undname.obj
 0002:000006e4       ??_C@_0BN@DEGPLNFK@?$GAvector?5deleting?5destructor?8?$AA@ 100146e4     libvcruntime:undname.obj
 0002:00000704       ??_C@_0BO@OBMKPJIG@?$GAdefault?5constructor?5closure?8?$AA@ 10014704     libvcruntime:undname.obj
 0002:00000724       ??_C@_0BN@IMDCHIKM@?$GAscalar?5deleting?5destructor?8?$AA@ 10014724     libvcruntime:undname.obj
 0002:00000744       ??_C@_0BO@PFGOCPJJ@?$GAvector?5constructor?5iterator?8?$AA@ 10014744     libvcruntime:undname.obj
 0002:00000764       ??_C@_0BN@LFPFMEDL@?$GAvector?5destructor?5iterator?8?$AA@ 10014764     libvcruntime:undname.obj
 0002:00000784       ??_C@_0CE@IKBNEHA@?$GAvector?5vbase?5constructor?5iterat@ 10014784     libvcruntime:undname.obj
 0002:000007a8       ??_C@_0BL@NILFHHPC@?$GAvirtual?5displacement?5map?8?$AA@ 100147a8     libvcruntime:undname.obj
 0002:000007c4       ??_C@_0CB@JONCMFFK@?$GAeh?5vector?5constructor?5iterator?8@ 100147c4     libvcruntime:undname.obj
 0002:000007e8       ??_C@_0CA@GCEOPDGL@?$GAeh?5vector?5destructor?5iterator?8?$AA@ 100147e8     libvcruntime:undname.obj
 0002:00000808       ??_C@_0CH@OOJPLCPH@?$GAeh?5vector?5vbase?5constructor?5ite@ 10014808     libvcruntime:undname.obj
 0002:00000830       ??_C@_0BL@LLKPOHJI@?$GAcopy?5constructor?5closure?8?$AA@ 10014830     libvcruntime:undname.obj
 0002:0000084c       ??_C@_0BA@KBCDOMBN@?$GAudt?5returning?8?$AA@ 1001484c     libvcruntime:undname.obj
 0002:0000085c       ??_C@_03KLGMFNMG@?$GAEH?$AA@ 1001485c     libvcruntime:undname.obj
 0002:00000860       ??_C@_05KHLCHHI@?$GARTTI?$AA@ 10014860     libvcruntime:undname.obj
 0002:00000868       ??_C@_0BA@KKLDJDLB@?$GAlocal?5vftable?8?$AA@ 10014868     libvcruntime:undname.obj
 0002:00000878       ??_C@_0CE@IIHCMGGL@?$GAlocal?5vftable?5constructor?5closu@ 10014878     libvcruntime:undname.obj
 0002:0000089c       ??_C@_06FHBGPFGH@?5new?$FL?$FN?$AA@ 1001489c     libvcruntime:undname.obj
 0002:000008a4       ??_C@_09LBNFPBCA@?5delete?$FL?$FN?$AA@ 100148a4     libvcruntime:undname.obj
 0002:000008b0       ??_C@_0P@HJKNJFNN@?$GAomni?5callsig?8?$AA@ 100148b0     libvcruntime:undname.obj
 0002:000008c0       ??_C@_0BL@CNOONJFP@?$GAplacement?5delete?5closure?8?$AA@ 100148c0     libvcruntime:undname.obj
 0002:000008dc       ??_C@_0BN@CKNJLHMB@?$GAplacement?5delete?$FL?$FN?5closure?8?$AA@ 100148dc     libvcruntime:undname.obj
 0002:000008fc       ??_C@_0CG@CFDHKGGD@?$GAmanaged?5vector?5constructor?5iter@ 100148fc     libvcruntime:undname.obj
 0002:00000924       ??_C@_0CF@IMGKMJNO@?$GAmanaged?5vector?5destructor?5itera@ 10014924     libvcruntime:undname.obj
 0002:0000094c       ??_C@_0CG@HLDDJMAG@?$GAeh?5vector?5copy?5constructor?5iter@ 1001494c     libvcruntime:undname.obj
 0002:00000974       ??_C@_0CM@FCBBDIGB@?$GAeh?5vector?5vbase?5copy?5constructo@ 10014974     libvcruntime:undname.obj
 0002:000009a0       ??_C@_0BL@CLIPGLGB@?$GAdynamic?5initializer?5for?5?8?$AA@ 100149a0     libvcruntime:undname.obj
 0002:000009bc       ??_C@_0CB@PDBIFEP@?$GAdynamic?5atexit?5destructor?5for?5?8@ 100149bc     libvcruntime:undname.obj
 0002:000009e0       ??_C@_0CD@CGAJBKEJ@?$GAvector?5copy?5constructor?5iterato@ 100149e0     libvcruntime:undname.obj
 0002:00000a04       ??_C@_0CJ@GJELGAMM@?$GAvector?5vbase?5copy?5constructor?5i@ 10014a04     libvcruntime:undname.obj
 0002:00000a30       ??_C@_0CL@FGIJHLCE@?$GAmanaged?5vector?5copy?5constructor@ 10014a30     libvcruntime:undname.obj
 0002:00000a5c       ??_C@_0BM@PMGGMLDN@?$GAlocal?5static?5thread?5guard?8?$AA@ 10014a5c     libvcruntime:undname.obj
 0002:00000a78       ??_C@_0N@BDNMDMOL@operator?5?$CC?$CC?5?$AA@ 10014a78     libvcruntime:undname.obj
 0002:00000a88       ??_C@_0BC@DAFEJGAK@?5Type?5Descriptor?8?$AA@ 10014a88     libvcruntime:undname.obj
 0002:00000a9c       ??_C@_0BM@LDKODKLH@?5Base?5Class?5Descriptor?5at?5?$CI?$AA@ 10014a9c     libvcruntime:undname.obj
 0002:00000ab8       ??_C@_0BD@LGICGFMM@?5Base?5Class?5Array?8?$AA@ 10014ab8     libvcruntime:undname.obj
 0002:00000acc       ??_C@_0BN@MECKDCOJ@?5Class?5Hierarchy?5Descriptor?8?$AA@ 10014acc     libvcruntime:undname.obj
 0002:00000aec       ??_C@_0BK@CFCOFLF@?5Complete?5Object?5Locator?8?$AA@ 10014aec     libvcruntime:undname.obj
 0002:00000b08       ??_C@_1EK@MBDPDCGA@?$AAM?$AAi?$AAc?$AAr?$AAo?$AAs?$AAo?$AAf?$AAt?$AA?5?$AAV?$AAi?$AAs?$AAu?$AAa?$AAl?$AA?5?$AAC?$AA?$CL?$AA?$CL?$AA?5?$AAR?$AAu?$AAn?$AAt?$AAi?$AAm?$AAe?$AA?5?$AAL?$AAi?$AAb@ 10014b08     libucrt:assert.obj
 0002:00000b58       ??_C@_1FE@LHBLIKM@?$AAA?$AAs?$AAs?$AAe?$AAr?$AAt?$AAi?$AAo?$AAn?$AA?5?$AAf?$AAa?$AAi?$AAl?$AAe?$AAd?$AA?3?$AA?5?$AA?$CF?$AAT?$AAs?$AA?0?$AA?5?$AAf?$AAi?$AAl?$AAe?$AA?5?$AA?$CF?$AAT?$AAs?$AA?0@ 10014b58     libucrt:assert.obj
 0002:00000bac       ??_C@_1CE@OJBNHDMO@?$AAA?$AAs?$AAs?$AAe?$AAr?$AAt?$AAi?$AAo?$AAn?$AA?5?$AAf?$AAa?$AAi?$AAl?$AAe?$AAd?$AA?$CB?$AA?$AA@ 10014bac     libucrt:assert.obj
 0002:00000bd0       ??_C@_1BE@PHKBBGE@?$AAP?$AAr?$AAo?$AAg?$AAr?$AAa?$AAm?$AA?3?$AA?5?$AA?$AA@ 10014bd0     libucrt:assert.obj
 0002:00000be4       ??_C@_1O@HEMHKNDC@?$AAF?$AAi?$AAl?$AAe?$AA?3?$AA?5?$AA?$AA@ 10014be4     libucrt:assert.obj
 0002:00000bf4       ??_C@_1O@KCAFKHJE@?$AAL?$AAi?$AAn?$AAe?$AA?3?$AA?5?$AA?$AA@ 10014bf4     libucrt:assert.obj
 0002:00000c04       ??_C@_1BK@PEDCIPMA@?$AAE?$AAx?$AAp?$AAr?$AAe?$AAs?$AAs?$AAi?$AAo?$AAn?$AA?3?$AA?5?$AA?$AA@ 10014c04     libucrt:assert.obj
 0002:00000c20       ??_C@_1OA@EGMLFBHJ@?$AAF?$AAo?$AAr?$AA?5?$AAi?$AAn?$AAf?$AAo?$AAr?$AAm?$AAa?$AAt?$AAi?$AAo?$AAn?$AA?5?$AAo?$AAn?$AA?5?$AAh?$AAo?$AAw?$AA?5?$AAy?$AAo?$AAu?$AAr?$AA?5?$AAp?$AAr?$AAo?$AAg@ 10014c20     libucrt:assert.obj
 0002:00000d00       ??_C@_1HK@POCJMFGK@?$AA?$CI?$AAP?$AAr?$AAe?$AAs?$AAs?$AA?5?$AAR?$AAe?$AAt?$AAr?$AAy?$AA?5?$AAt?$AAo?$AA?5?$AAd?$AAe?$AAb?$AAu?$AAg?$AA?5?$AAt?$AAh?$AAe?$AA?5?$AAa?$AAp?$AAp?$AAl?$AAi?$AAc@ 10014d00     libucrt:assert.obj
 0002:00000d7c       ??_C@_17LGKOMLJ@?$AA?4?$AA?4?$AA?4?$AA?$AA@ 10014d7c     libucrt:assert.obj
 0002:00000d84       ??_C@_13LBAGMAIH@?$AA?6?$AA?$AA@ 10014d84     libucrt:assert.obj
 0002:00000d88       ??_C@_15IABLJNFO@?$AA?6?$AA?6?$AA?$AA@ 10014d88     libucrt:assert.obj
 0002:00000d90       ??_C@_1CO@EAEJAADC@?$AA?$DM?$AAp?$AAr?$AAo?$AAg?$AAr?$AAa?$AAm?$AA?5?$AAn?$AAa?$AAm?$AAe?$AA?5?$AAu?$AAn?$AAk?$AAn?$AAo?$AAw?$AAn?$AA?$DO?$AA?$AA@ 10014d90     libucrt:assert.obj
 0002:00000dc0       ___acrt_exception_action_table 10014dc0     libucrt:exception_filter.obj
 0002:00000e50       ___acrt_signal_action_table_count 10014e50     libucrt:exception_filter.obj
 0002:00000e54       ___acrt_signal_action_first_fpe_index 10014e54     libucrt:exception_filter.obj
 0002:00000e58       ___acrt_signal_action_fpe_count 10014e58     libucrt:exception_filter.obj
 0002:00000e5c       ??_C@_1BI@BGOHAHKC@?$AAm?$AAs?$AAc?$AAo?$AAr?$AAe?$AAe?$AA?4?$AAd?$AAl?$AAl?$AA?$AA@ 10014e5c     libucrt:exit.obj
 0002:00000e74       ??_C@_0P@MIGLKIOC@CorExitProcess?$AA@ 10014e74     libucrt:exit.obj
 0002:00000f00       _standard_lookup_table     10014f00     libucrt:output.obj
 0002:00000f5c       ??_C@_06OJHGLDPL@?$CInull?$CJ?$AA@ 10014f5c     libucrt:output.obj
 0002:00000f64       ??_C@_1O@CEDCILHN@?$AA?$CI?$AAn?$AAu?$AAl?$AAl?$AA?$CJ?$AA?$AA@ 10014f64     libucrt:output.obj
 0002:000010e0       ??_C@_03KOEHGMDN@Sun?$AA@  100150e0     libucrt:nlsdata.obj
 0002:000010e4       ??_C@_03PDAGKDH@Mon?$AA@   100150e4     libucrt:nlsdata.obj
 0002:000010e8       ??_C@_03NAGEINEP@Tue?$AA@  100150e8     libucrt:nlsdata.obj
 0002:000010ec       ??_C@_03MHOMLAJA@Wed?$AA@  100150ec     libucrt:nlsdata.obj
 0002:000010f0       ??_C@_03IOFIKPDN@Thu?$AA@  100150f0     libucrt:nlsdata.obj
 0002:000010f4       ??_C@_03IDIOELNC@Fri?$AA@  100150f4     libucrt:nlsdata.obj
 0002:000010f8       ??_C@_03FEFJNEK@Sat?$AA@   100150f8     libucrt:nlsdata.obj
 0002:000010fc       ??_C@_06OOPIFAJ@Sunday?$AA@ 100150fc     libucrt:nlsdata.obj
 0002:00001104       ??_C@_06JLEDEDGH@Monday?$AA@ 10015104     libucrt:nlsdata.obj
 0002:0000110c       ??_C@_07BAAGCFCM@Tuesday?$AA@ 1001510c     libucrt:nlsdata.obj
 0002:00001114       ??_C@_09DLIGFAKA@Wednesday?$AA@ 10015114     libucrt:nlsdata.obj
 0002:00001120       ??_C@_08HACCIKIA@Thursday?$AA@ 10015120     libucrt:nlsdata.obj
 0002:0000112c       ??_C@_06JECMNKMI@Friday?$AA@ 1001512c     libucrt:nlsdata.obj
 0002:00001134       ??_C@_08INBOOONO@Saturday?$AA@ 10015134     libucrt:nlsdata.obj
 0002:00001140       ??_C@_03JIHJHPIE@Jan?$AA@  10015140     libucrt:nlsdata.obj
 0002:00001144       ??_C@_03HJBDCHOM@Feb?$AA@  10015144     libucrt:nlsdata.obj
 0002:00001148       ??_C@_03ODNJBKGA@Mar?$AA@  10015148     libucrt:nlsdata.obj
 0002:0000114c       ??_C@_03LEOLGMJP@Apr?$AA@  1001514c     libucrt:nlsdata.obj
 0002:00001150       ??_C@_03CNMDKL@May?$AA@    10015150     libucrt:nlsdata.obj
 0002:00001154       ??_C@_03IDFGHECI@Jun?$AA@  10015154     libucrt:nlsdata.obj
 0002:00001158       ??_C@_03LBGABGKK@Jul?$AA@  10015158     libucrt:nlsdata.obj
 0002:0000115c       ??_C@_03IFJFEIGA@Aug?$AA@  1001515c     libucrt:nlsdata.obj
 0002:00001160       ??_C@_03GGCAPAJC@Sep?$AA@  10015160     libucrt:nlsdata.obj
 0002:00001164       ??_C@_03BMAOKBAD@Oct?$AA@  10015164     libucrt:nlsdata.obj
 0002:00001168       ??_C@_03JPJOFNIA@Nov?$AA@  10015168     libucrt:nlsdata.obj
 0002:0000116c       ??_C@_03MKABNOCG@Dec?$AA@  1001516c     libucrt:nlsdata.obj
 0002:00001170       ??_C@_07CGJPFGJA@January?$AA@ 10015170     libucrt:nlsdata.obj
 0002:00001178       ??_C@_08GNJGEPFN@February?$AA@ 10015178     libucrt:nlsdata.obj
 0002:00001184       ??_C@_05HPCKOFNC@March?$AA@ 10015184     libucrt:nlsdata.obj
 0002:0000118c       ??_C@_05DMJDNLEJ@April?$AA@ 1001518c     libucrt:nlsdata.obj
 0002:00001194       ??_C@_04CNLMGBGM@June?$AA@ 10015194     libucrt:nlsdata.obj
 0002:0000119c       ??_C@_04MIEPOIFP@July?$AA@ 1001519c     libucrt:nlsdata.obj
 0002:000011a4       ??_C@_06LBBHFDDG@August?$AA@ 100151a4     libucrt:nlsdata.obj
 0002:000011ac       ??_C@_09BHHEALKD@September?$AA@ 100151ac     libucrt:nlsdata.obj
 0002:000011b8       ??_C@_07JJNFCEND@October?$AA@ 100151b8     libucrt:nlsdata.obj
 0002:000011c0       ??_C@_08HCHEGEOA@November?$AA@ 100151c0     libucrt:nlsdata.obj
 0002:000011cc       ??_C@_08EDHMEBNP@December?$AA@ 100151cc     libucrt:nlsdata.obj
 0002:000011d8       ??_C@_02DEDBPAFC@AM?$AA@   100151d8     libucrt:nlsdata.obj
 0002:000011dc       ??_C@_02CJNFDJBF@PM?$AA@   100151dc     libucrt:nlsdata.obj
 0002:000011e0       ??_C@_08BPBNCDIB@MM?1dd?1yy?$AA@ 100151e0     libucrt:nlsdata.obj
 0002:000011ec       ??_C@_0BE@CKGJFCPC@dddd?0?5MMMM?5dd?0?5yyyy?$AA@ 100151ec     libucrt:nlsdata.obj
 0002:00001200       ??_C@_08JCCMCCIL@HH?3mm?3ss?$AA@ 10015200     libucrt:nlsdata.obj
 0002:0000120c       ??_C@_17MBGCMIPB@?$AAS?$AAu?$AAn?$AA?$AA@ 1001520c     libucrt:nlsdata.obj
 0002:00001214       ??_C@_17KBOMKBF@?$AAM?$AAo?$AAn?$AA?$AA@ 10015214     libucrt:nlsdata.obj
 0002:0000121c       ??_C@_17BMKGEGOJ@?$AAT?$AAu?$AAe?$AA?$AA@ 1001521c     libucrt:nlsdata.obj
 0002:00001224       ??_C@_17CJEDCEPE@?$AAW?$AAe?$AAd?$AA?$AA@ 10015224     libucrt:nlsdata.obj
 0002:0000122c       ??_C@_17PDPHAADD@?$AAT?$AAh?$AAu?$AA?$AA@ 1001522c     libucrt:nlsdata.obj
 0002:00001234       ??_C@_17HFOLPPLP@?$AAF?$AAr?$AAi?$AA?$AA@ 10015234     libucrt:nlsdata.obj
 0002:0000123c       ??_C@_17GGIBDPIH@?$AAS?$AAa?$AAt?$AA?$AA@ 1001523c     libucrt:nlsdata.obj
 0002:00001244       ??_C@_1O@IHNHDHPB@?$AAS?$AAu?$AAn?$AAd?$AAa?$AAy?$AA?$AA@ 10015244     libucrt:nlsdata.obj
 0002:00001254       ??_C@_1O@MMNBFLIA@?$AAM?$AAo?$AAn?$AAd?$AAa?$AAy?$AA?$AA@ 10015254     libucrt:nlsdata.obj
 0002:00001264       ??_C@_1BA@ENFBFFEK@?$AAT?$AAu?$AAe?$AAs?$AAd?$AAa?$AAy?$AA?$AA@ 10015264     libucrt:nlsdata.obj
 0002:00001274       ??_C@_1BE@EBOGMDOH@?$AAW?$AAe?$AAd?$AAn?$AAe?$AAs?$AAd?$AAa?$AAy?$AA?$AA@ 10015274     libucrt:nlsdata.obj
 0002:00001288       ??_C@_1BC@HHMNLIHE@?$AAT?$AAh?$AAu?$AAr?$AAs?$AAd?$AAa?$AAy?$AA?$AA@ 10015288     libucrt:nlsdata.obj
 0002:0000129c       ??_C@_1O@PDICJHAG@?$AAF?$AAr?$AAi?$AAd?$AAa?$AAy?$AA?$AA@ 1001529c     libucrt:nlsdata.obj
 0002:000012ac       ??_C@_1BC@ENMNNPAJ@?$AAS?$AAa?$AAt?$AAu?$AAr?$AAd?$AAa?$AAy?$AA?$AA@ 100152ac     libucrt:nlsdata.obj
 0002:000012c0       ??_C@_17DKNBKCHM@?$AAJ?$AAa?$AAn?$AA?$AA@ 100152c0     libucrt:nlsdata.obj
 0002:000012c8       ??_C@_17LMDJEKJN@?$AAF?$AAe?$AAb?$AA?$AA@ 100152c8     libucrt:nlsdata.obj
 0002:000012d0       ??_C@_17CKNLEDEC@?$AAM?$AAa?$AAr?$AA?$AA@ 100152d0     libucrt:nlsdata.obj
 0002:000012d8       ??_C@_17LFPOIHDD@?$AAA?$AAp?$AAr?$AA?$AA@ 100152d8     libucrt:nlsdata.obj
 0002:000012e0       ??_C@_17PNNKMEED@?$AAM?$AAa?$AAy?$AA?$AA@ 100152e0     libucrt:nlsdata.obj
 0002:000012e8       ??_C@_17KCJGOCPB@?$AAJ?$AAu?$AAn?$AA?$AA@ 100152e8     libucrt:nlsdata.obj
 0002:000012f0       ??_C@_17IJPCKHK@?$AAJ?$AAu?$AAl?$AA?$AA@ 100152f0     libucrt:nlsdata.obj
 0002:000012f8       ??_C@_17ICPELBCN@?$AAA?$AAu?$AAg?$AA?$AA@ 100152f8     libucrt:nlsdata.obj
 0002:00001300       ??_C@_17HCHCOKMG@?$AAS?$AAe?$AAp?$AA?$AA@ 10015300     libucrt:nlsdata.obj
 0002:00001308       ??_C@_17FNLKOI@?$AAO?$AAc?$AAt?$AA?$AA@ 10015308     libucrt:nlsdata.obj
 0002:00001310       ??_C@_17BBDMLCIG@?$AAN?$AAo?$AAv?$AA?$AA@ 10015310     libucrt:nlsdata.obj
 0002:00001318       ??_C@_17EGKACKIF@?$AAD?$AAe?$AAc?$AA?$AA@ 10015318     libucrt:nlsdata.obj
 0002:00001320       ??_C@_1BA@EFMEIEBA@?$AAJ?$AAa?$AAn?$AAu?$AAa?$AAr?$AAy?$AA?$AA@ 10015320     libucrt:nlsdata.obj
 0002:00001330       ??_C@_1BC@JGDDFFAM@?$AAF?$AAe?$AAb?$AAr?$AAu?$AAa?$AAr?$AAy?$AA?$AA@ 10015330     libucrt:nlsdata.obj
 0002:00001344       ??_C@_1M@IKEENEDF@?$AAM?$AAa?$AAr?$AAc?$AAh?$AA?$AA@ 10015344     libucrt:nlsdata.obj
 0002:00001350       ??_C@_1M@GJNLMHFD@?$AAA?$AAp?$AAr?$AAi?$AAl?$AA?$AA@ 10015350     libucrt:nlsdata.obj
 0002:0000135c       ??_C@_19EPFLPGAP@?$AAJ?$AAu?$AAn?$AAe?$AA?$AA@ 1001535c     libucrt:nlsdata.obj
 0002:00001368       ??_C@_19BIFMLPCD@?$AAJ?$AAu?$AAl?$AAy?$AA?$AA@ 10015368     libucrt:nlsdata.obj
 0002:00001374       ??_C@_1O@PAHLKOAC@?$AAA?$AAu?$AAg?$AAu?$AAs?$AAt?$AA?$AA@ 10015374     libucrt:nlsdata.obj
 0002:00001384       ??_C@_1BE@DKAAMBJL@?$AAS?$AAe?$AAp?$AAt?$AAe?$AAm?$AAb?$AAe?$AAr?$AA?$AA@ 10015384     libucrt:nlsdata.obj
 0002:00001398       ??_C@_1BA@EPANDLNG@?$AAO?$AAc?$AAt?$AAo?$AAb?$AAe?$AAr?$AA?$AA@ 10015398     libucrt:nlsdata.obj
 0002:000013a8       ??_C@_1BC@BGLIFPF@?$AAN?$AAo?$AAv?$AAe?$AAm?$AAb?$AAe?$AAr?$AA?$AA@ 100153a8     libucrt:nlsdata.obj
 0002:000013bc       ??_C@_1BC@FEMKIFH@?$AAD?$AAe?$AAc?$AAe?$AAm?$AAb?$AAe?$AAr?$AA?$AA@ 100153bc     libucrt:nlsdata.obj
 0002:000013d0       ??_C@_15ODEHAHHF@?$AAA?$AAM?$AA?$AA@ 100153d0     libucrt:nlsdata.obj
 0002:000013d8       ??_C@_15CLMNNGEL@?$AAP?$AAM?$AA?$AA@ 100153d8     libucrt:nlsdata.obj
 0002:000013e0       ??_C@_1BC@IEBCMHCM@?$AAM?$AAM?$AA?1?$AAd?$AAd?$AA?1?$AAy?$AAy?$AA?$AA@ 100153e0     libucrt:nlsdata.obj
 0002:000013f4       ??_C@_1CI@KNAKOEBC@?$AAd?$AAd?$AAd?$AAd?$AA?0?$AA?5?$AAM?$AAM?$AAM?$AAM?$AA?5?$AAd?$AAd?$AA?0?$AA?5?$AAy?$AAy?$AAy?$AAy?$AA?$AA@ 100153f4     libucrt:nlsdata.obj
 0002:0000141c       ??_C@_1BC@GDGBMEMK@?$AAH?$AAH?$AA?3?$AAm?$AAm?$AA?3?$AAs?$AAs?$AA?$AA@ 1001541c     libucrt:nlsdata.obj
 0002:00001430       ??_C@_1M@BMHNFIME@?$AAe?$AAn?$AA?9?$AAU?$AAS?$AA?$AA@ 10015430     libucrt:nlsdata.obj
 0002:00001440       ___lc_time_c               10015440     libucrt:nlsdata.obj
 0002:000015f8       ??_C@_1EG@CNNIPFIM@?$AAa?$AAp?$AAi?$AA?9?$AAm?$AAs?$AA?9?$AAw?$AAi?$AAn?$AA?9?$AAa?$AAp?$AAp?$AAm?$AAo?$AAd?$AAe?$AAl?$AA?9?$AAr?$AAu?$AAn?$AAt?$AAi?$AAm?$AAe?$AA?9?$AAl?$AA1?$AA?9?$AA1@ 100155f8     libucrt:winapi_thunks.obj
 0002:00001640       ??_C@_1EA@JGEFHKEI@?$AAa?$AAp?$AAi?$AA?9?$AAm?$AAs?$AA?9?$AAw?$AAi?$AAn?$AA?9?$AAc?$AAo?$AAr?$AAe?$AA?9?$AAd?$AAa?$AAt?$AAe?$AAt?$AAi?$AAm?$AAe?$AA?9?$AAl?$AA1?$AA?9?$AA1?$AA?9?$AA1?$AA?$AA@ 10015640     libucrt:winapi_thunks.obj
 0002:00001680       ??_C@_1DI@GCIAAENM@?$AAa?$AAp?$AAi?$AA?9?$AAm?$AAs?$AA?9?$AAw?$AAi?$AAn?$AA?9?$AAc?$AAo?$AAr?$AAe?$AA?9?$AAf?$AAi?$AAl?$AAe?$AA?9?$AAl?$AA2?$AA?9?$AA1?$AA?9?$AA1?$AA?$AA@ 10015680     libucrt:winapi_thunks.obj
 0002:000016b8       ??_C@_1EI@MPIAOHOC@?$AAa?$AAp?$AAi?$AA?9?$AAm?$AAs?$AA?9?$AAw?$AAi?$AAn?$AA?9?$AAc?$AAo?$AAr?$AAe?$AA?9?$AAl?$AAo?$AAc?$AAa?$AAl?$AAi?$AAz?$AAa?$AAt?$AAi?$AAo?$AAn?$AA?9?$AAl?$AA1?$AA?9@ 100156b8     libucrt:winapi_thunks.obj
 0002:00001700       ??_C@_1FK@FPHCKFIE@?$AAa?$AAp?$AAi?$AA?9?$AAm?$AAs?$AA?9?$AAw?$AAi?$AAn?$AA?9?$AAc?$AAo?$AAr?$AAe?$AA?9?$AAl?$AAo?$AAc?$AAa?$AAl?$AAi?$AAz?$AAa?$AAt?$AAi?$AAo?$AAn?$AA?9?$AAo?$AAb?$AAs@ 10015700     libucrt:winapi_thunks.obj
 0002:00001760       ??_C@_1EM@DILCGIIO@?$AAa?$AAp?$AAi?$AA?9?$AAm?$AAs?$AA?9?$AAw?$AAi?$AAn?$AA?9?$AAc?$AAo?$AAr?$AAe?$AA?9?$AAp?$AAr?$AAo?$AAc?$AAe?$AAs?$AAs?$AAt?$AAh?$AAr?$AAe?$AAa?$AAd?$AAs?$AA?9?$AAl@ 10015760     libucrt:winapi_thunks.obj
 0002:000017ac       ??_C@_1DM@LNCGDDPN@?$AAa?$AAp?$AAi?$AA?9?$AAm?$AAs?$AA?9?$AAw?$AAi?$AAn?$AA?9?$AAc?$AAo?$AAr?$AAe?$AA?9?$AAs?$AAt?$AAr?$AAi?$AAn?$AAg?$AA?9?$AAl?$AA1?$AA?9?$AA1?$AA?9?$AA0?$AA?$AA@ 100157ac     libucrt:winapi_thunks.obj
 0002:000017e8       ??_C@_1DO@FPAPJEMD@?$AAa?$AAp?$AAi?$AA?9?$AAm?$AAs?$AA?9?$AAw?$AAi?$AAn?$AA?9?$AAc?$AAo?$AAr?$AAe?$AA?9?$AAs?$AAy?$AAs?$AAi?$AAn?$AAf?$AAo?$AA?9?$AAl?$AA1?$AA?9?$AA2?$AA?9?$AA1?$AA?$AA@ 100157e8     libucrt:winapi_thunks.obj
 0002:00001828       ??_C@_1DK@NDHNAHIO@?$AAa?$AAp?$AAi?$AA?9?$AAm?$AAs?$AA?9?$AAw?$AAi?$AAn?$AA?9?$AAc?$AAo?$AAr?$AAe?$AA?9?$AAw?$AAi?$AAn?$AAr?$AAt?$AA?9?$AAl?$AA1?$AA?9?$AA1?$AA?9?$AA0?$AA?$AA@ 10015828     libucrt:winapi_thunks.obj
 0002:00001864       ??_C@_1DM@KGHDGBCM@?$AAa?$AAp?$AAi?$AA?9?$AAm?$AAs?$AA?9?$AAw?$AAi?$AAn?$AA?9?$AAc?$AAo?$AAr?$AAe?$AA?9?$AAx?$AAs?$AAt?$AAa?$AAt?$AAe?$AA?9?$AAl?$AA2?$AA?9?$AA1?$AA?9?$AA0?$AA?$AA@ 10015864     libucrt:winapi_thunks.obj
 0002:000018a0       ??_C@_1EO@IJIOEFOH@?$AAa?$AAp?$AAi?$AA?9?$AAm?$AAs?$AA?9?$AAw?$AAi?$AAn?$AA?9?$AAr?$AAt?$AAc?$AAo?$AAr?$AAe?$AA?9?$AAn?$AAt?$AAu?$AAs?$AAe?$AAr?$AA?9?$AAw?$AAi?$AAn?$AAd?$AAo?$AAw?$AA?9@ 100158a0     libucrt:winapi_thunks.obj
 0002:000018f0       ??_C@_1FG@HHGEKANL@?$AAa?$AAp?$AAi?$AA?9?$AAm?$AAs?$AA?9?$AAw?$AAi?$AAn?$AA?9?$AAs?$AAe?$AAc?$AAu?$AAr?$AAi?$AAt?$AAy?$AA?9?$AAs?$AAy?$AAs?$AAt?$AAe?$AAm?$AAf?$AAu?$AAn?$AAc?$AAt?$AAi@ 100158f0     libucrt:winapi_thunks.obj
 0002:00001948       ??_C@_1FG@NCKKOLKO@?$AAe?$AAx?$AAt?$AA?9?$AAm?$AAs?$AA?9?$AAw?$AAi?$AAn?$AA?9?$AAk?$AAe?$AAr?$AAn?$AAe?$AAl?$AA3?$AA2?$AA?9?$AAp?$AAa?$AAc?$AAk?$AAa?$AAg?$AAe?$AA?9?$AAc?$AAu?$AAr?$AAr@ 10015948     libucrt:winapi_thunks.obj
 0002:000019a0       ??_C@_1EG@DBIOJECG@?$AAe?$AAx?$AAt?$AA?9?$AAm?$AAs?$AA?9?$AAw?$AAi?$AAn?$AA?9?$AAn?$AAt?$AAu?$AAs?$AAe?$AAr?$AA?9?$AAd?$AAi?$AAa?$AAl?$AAo?$AAg?$AAb?$AAo?$AAx?$AA?9?$AAl?$AA1?$AA?9?$AA1@ 100159a0     libucrt:winapi_thunks.obj
 0002:000019e8       ??_C@_1EO@FIHMJCLF@?$AAe?$AAx?$AAt?$AA?9?$AAm?$AAs?$AA?9?$AAw?$AAi?$AAn?$AA?9?$AAn?$AAt?$AAu?$AAs?$AAe?$AAr?$AA?9?$AAw?$AAi?$AAn?$AAd?$AAo?$AAw?$AAs?$AAt?$AAa?$AAt?$AAi?$AAo?$AAn?$AA?9@ 100159e8     libucrt:winapi_thunks.obj
 0002:00001a38       ??_C@_1O@BCCLBEOE@?$AAu?$AAs?$AAe?$AAr?$AA3?$AA2?$AA?$AA@ 10015a38     libucrt:winapi_thunks.obj
 0002:00001a70       ??_C@_0BA@HNOPNCHB@GetActiveWindow?$AA@ 10015a70     libucrt:winapi_thunks.obj
 0002:00001a88       ??_C@_0BE@JOGNEJCI@GetCurrentPackageId?$AA@ 10015a88     libucrt:winapi_thunks.obj
 0002:00001aa4       ??_C@_0BD@HHGDFDBJ@GetLastActivePopup?$AA@ 10015aa4     libucrt:winapi_thunks.obj
 0002:00001ac0       ??_C@_0BI@DFKBFLJE@GetProcessWindowStation?$AA@ 10015ac0     libucrt:winapi_thunks.obj
 0002:00001ae0       ??_C@_0BK@DEKFELLI@GetUserObjectInformationW?$AA@ 10015ae0     libucrt:winapi_thunks.obj
 0002:00001b0c       ??_C@_0O@KKBNKAPF@LCMapStringEx?$AA@ 10015b0c     libucrt:winapi_thunks.obj
 0002:00001b24       ??_C@_0BB@HBDEELFH@LocaleNameToLCID?$AA@ 10015b24     libucrt:winapi_thunks.obj
 0002:00001b40       ??_C@_0M@CHKKJDAI@MessageBoxA?$AA@ 10015b40     libucrt:winapi_thunks.obj
 0002:00001b54       ??_C@_0M@DLDCCGNP@MessageBoxW?$AA@ 10015b54     libucrt:winapi_thunks.obj
 0002:00001b70       ??_C@_1M@HPNHIDJI@?$AAj?$AAa?$AA?9?$AAJ?$AAP?$AA?$AA@ 10015b70     libucrt:mbctype.obj
 0002:00001b7c       ??_C@_1M@BIBDDEMK@?$AAz?$AAh?$AA?9?$AAC?$AAN?$AA?$AA@ 10015b7c     libucrt:mbctype.obj
 0002:00001b88       ??_C@_1M@JLOOOEGK@?$AAk?$AAo?$AA?9?$AAK?$AAR?$AA?$AA@ 10015b88     libucrt:mbctype.obj
 0002:00001b94       ??_C@_1M@CLNBBOPM@?$AAz?$AAh?$AA?9?$AAT?$AAW?$AA?$AA@ 10015b94     libucrt:mbctype.obj
 0002:00001ba0       ??_C@_03OEIAHPBN@INF?$AA@  10015ba0     libucrt:cvt.obj
 0002:00001ba4       ??_C@_03OJHLLCGB@inf?$AA@  10015ba4     libucrt:cvt.obj
 0002:00001ba8       ??_C@_03LKNCIKJB@NAN?$AA@  10015ba8     libucrt:cvt.obj
 0002:00001bac       ??_C@_03LHCJEHON@nan?$AA@  10015bac     libucrt:cvt.obj
 0002:00001bb0       ??_C@_09OFJJIMPC@NAN?$CISNAN?$CJ?$AA@ 10015bb0     libucrt:cvt.obj
 0002:00001bbc       ??_C@_09IPFBKMDL@nan?$CIsnan?$CJ?$AA@ 10015bbc     libucrt:cvt.obj
 0002:00001bc8       ??_C@_08IKHNHAJ@NAN?$CIIND?$CJ?$AA@ 10015bc8     libucrt:cvt.obj
 0002:00001bd4       ??_C@_08OFCDMILK@nan?$CIind?$CJ?$AA@ 10015bd4     libucrt:cvt.obj
 0002:00001be0       ??_C@_05KLBDPFGC@e?$CL000?$AA@ 10015be0     libucrt:cvt.obj
 0002:00001be8       __wctype                   10015be8     libucrt:ctype.obj
 0002:00001df0       ___newctype                10015df0     libucrt:ctype.obj
 0002:000020f0       ___newclmap                100160f0     libucrt:ctype.obj
 0002:00002270       ___newcumap                10016270     libucrt:ctype.obj
 0002:000023f0       ??_C@_15PJPFLCCM@?$AAu?$AAk?$AA?$AA@ 100163f0     libucrt:get_qualified_locale.obj
 0002:00002b18       ??_C@_15EMKDOKLE@?$AAa?$AAr?$AA?$AA@ 10016b18     libucrt:lcidtoname_downlevel.obj
 0002:00002b20       ??_C@_15KNPADPLH@?$AAb?$AAg?$AA?$AA@ 10016b20     libucrt:lcidtoname_downlevel.obj
 0002:00002b28       ??_C@_15EDMHLDMO@?$AAc?$AAa?$AA?$AA@ 10016b28     libucrt:lcidtoname_downlevel.obj
 0002:00002b30       ??_C@_1O@BPEAJADD@?$AAz?$AAh?$AA?9?$AAC?$AAH?$AAS?$AA?$AA@ 10016b30     libucrt:lcidtoname_downlevel.obj
 0002:00002b40       ??_C@_15LJNHCMNK@?$AAc?$AAs?$AA?$AA@ 10016b40     libucrt:lcidtoname_downlevel.obj
 0002:00002b48       ??_C@_15FOMCIDHG@?$AAd?$AAa?$AA?$AA@ 10016b48     libucrt:lcidtoname_downlevel.obj
 0002:00002b50       ??_C@_15NBKABECB@?$AAd?$AAe?$AA?$AA@ 10016b50     libucrt:lcidtoname_downlevel.obj
 0002:00002b58       ??_C@_15GHPEIIAO@?$AAe?$AAl?$AA?$AA@ 10016b58     libucrt:lcidtoname_downlevel.obj
 0002:00002b60       ??_C@_15MNPNEAIF@?$AAe?$AAn?$AA?$AA@ 10016b60     libucrt:lcidtoname_downlevel.obj
 0002:00002b68       ??_C@_15GPIOMPMH@?$AAe?$AAs?$AA?$AA@ 10016b68     libucrt:lcidtoname_downlevel.obj
 0002:00002b70       ??_C@_15NGLOAKJC@?$AAf?$AAi?$AA?$AA@ 10016b70     libucrt:lcidtoname_downlevel.obj
 0002:00002b78       ??_C@_15FBKGNKAM@?$AAf?$AAr?$AA?$AA@ 10016b78     libucrt:lcidtoname_downlevel.obj
 0002:00002b80       ??_C@_15KGGCNEFK@?$AAh?$AAe?$AA?$AA@ 10016b80     libucrt:lcidtoname_downlevel.obj
 0002:00002b88       ??_C@_15PGHLIDMF@?$AAh?$AAu?$AA?$AA@ 10016b88     libucrt:lcidtoname_downlevel.obj
 0002:00002b90       ??_C@_15BIEMAPLM@?$AAi?$AAs?$AA?$AA@ 10016b90     libucrt:lcidtoname_downlevel.obj
 0002:00002b98       ??_C@_15IFJLDHAF@?$AAi?$AAt?$AA?$AA@ 10016b98     libucrt:lcidtoname_downlevel.obj
 0002:00002ba0       ??_C@_15GEMIOCAG@?$AAj?$AAa?$AA?$AA@ 10016ba0     libucrt:lcidtoname_downlevel.obj
 0002:00002ba8       ??_C@_15EPELEGJA@?$AAk?$AAo?$AA?$AA@ 10016ba8     libucrt:lcidtoname_downlevel.obj
 0002:00002bb0       ??_C@_15NDDHIMN@?$AAn?$AAl?$AA?$AA@ 10016bb0     libucrt:lcidtoname_downlevel.obj
 0002:00002bb8       ??_C@_15BPIGNHCD@?$AAn?$AAo?$AA?$AA@ 10016bb8     libucrt:lcidtoname_downlevel.obj
 0002:00002bc0       ??_C@_15DEOPBLCG@?$AAp?$AAl?$AA?$AA@ 10016bc0     libucrt:lcidtoname_downlevel.obj
 0002:00002bc8       ??_C@_15KBECGEFG@?$AAp?$AAt?$AA?$AA@ 10016bc8     libucrt:lcidtoname_downlevel.obj
 0002:00002bd0       ??_C@_15GLJCBFMD@?$AAr?$AAo?$AA?$AA@ 10016bd0     libucrt:lcidtoname_downlevel.obj
 0002:00002bd8       ??_C@_15FEDGKCDI@?$AAr?$AAu?$AA?$AA@ 10016bd8     libucrt:lcidtoname_downlevel.obj
 0002:00002be0       ??_C@_15GLKMLLHM@?$AAh?$AAr?$AA?$AA@ 10016be0     libucrt:lcidtoname_downlevel.obj
 0002:00002be8       ??_C@_15CPKMFBDB@?$AAs?$AAk?$AA?$AA@ 10016be8     libucrt:lcidtoname_downlevel.obj
 0002:00002bf0       ??_C@_15BAAIOGMK@?$AAs?$AAq?$AA?$AA@ 10016bf0     libucrt:lcidtoname_downlevel.obj
 0002:00002bf8       ??_C@_15INNPNOHD@?$AAs?$AAv?$AA?$AA@ 10016bf8     libucrt:lcidtoname_downlevel.obj
 0002:00002c00       ??_C@_15CABMMOGH@?$AAt?$AAh?$AA?$AA@ 10016c00     libucrt:lcidtoname_downlevel.obj
 0002:00002c08       ??_C@_15BPLIHJJM@?$AAt?$AAr?$AA?$AA@ 10016c08     libucrt:lcidtoname_downlevel.obj
 0002:00002c10       ??_C@_15NEOEKKDJ@?$AAu?$AAr?$AA?$AA@ 10016c10     libucrt:lcidtoname_downlevel.obj
 0002:00002c18       ??_C@_15NFICGAJK@?$AAi?$AAd?$AA?$AA@ 10016c18     libucrt:lcidtoname_downlevel.obj
 0002:00002c20       ??_C@_15HPJPHDM@?$AAb?$AAe?$AA?$AA@ 10016c20     libucrt:lcidtoname_downlevel.obj
 0002:00002c28       ??_C@_15LCHLGJII@?$AAs?$AAl?$AA?$AA@ 10016c28     libucrt:lcidtoname_downlevel.obj
 0002:00002c30       ??_C@_15PCFJPHHO@?$AAe?$AAt?$AA?$AA@ 10016c30     libucrt:lcidtoname_downlevel.obj
 0002:00002c38       ??_C@_15HPFPGODN@?$AAl?$AAv?$AA?$AA@ 10016c38     libucrt:lcidtoname_downlevel.obj
 0002:00002c40       ??_C@_15NFFGKGLG@?$AAl?$AAt?$AA?$AA@ 10016c40     libucrt:lcidtoname_downlevel.obj
 0002:00002c48       ??_C@_15BDAKCCHN@?$AAf?$AAa?$AA?$AA@ 10016c48     libucrt:lcidtoname_downlevel.obj
 0002:00002c50       ??_C@_15NFGIAIAJ@?$AAv?$AAi?$AA?$AA@ 10016c50     libucrt:lcidtoname_downlevel.obj
 0002:00002c58       ??_C@_15LMKNDMHN@?$AAh?$AAy?$AA?$AA@ 10016c58     libucrt:lcidtoname_downlevel.obj
 0002:00002c60       ??_C@_15IJBHMCFL@?$AAa?$AAz?$AA?$AA@ 10016c60     libucrt:lcidtoname_downlevel.obj
 0002:00002c68       ??_C@_15EKOFJABL@?$AAe?$AAu?$AA?$AA@ 10016c68     libucrt:lcidtoname_downlevel.obj
 0002:00002c70       ??_C@_15BGHADCNK@?$AAm?$AAk?$AA?$AA@ 10016c70     libucrt:lcidtoname_downlevel.obj
 0002:00002c78       ??_C@_15JDNICKHM@?$AAa?$AAf?$AA?$AA@ 10016c78     libucrt:lcidtoname_downlevel.obj
 0002:00002c80       ??_C@_15KPJEDBKD@?$AAk?$AAa?$AA?$AA@ 10016c80     libucrt:lcidtoname_downlevel.obj
 0002:00002c88       ??_C@_15PDNFFFEO@?$AAf?$AAo?$AA?$AA@ 10016c88     libucrt:lcidtoname_downlevel.obj
 0002:00002c90       ??_C@_15OMLEGLOC@?$AAh?$AAi?$AA?$AA@ 10016c90     libucrt:lcidtoname_downlevel.obj
 0002:00002c98       ??_C@_15IDNNENKK@?$AAm?$AAs?$AA?$AA@ 10016c98     libucrt:lcidtoname_downlevel.obj
 0002:00002ca0       ??_C@_15MACJNBMH@?$AAk?$AAk?$AA?$AA@ 10016ca0     libucrt:lcidtoname_downlevel.obj
 0002:00002ca8       ??_C@_15DKDJEOND@?$AAk?$AAy?$AA?$AA@ 10016ca8     libucrt:lcidtoname_downlevel.obj
 0002:00002cb0       ??_C@_15DFGDLJBG@?$AAs?$AAw?$AA?$AA@ 10016cb0     libucrt:lcidtoname_downlevel.obj
 0002:00002cb8       ??_C@_15BBFAICNG@?$AAu?$AAz?$AA?$AA@ 10016cb8     libucrt:lcidtoname_downlevel.obj
 0002:00002cc0       ??_C@_15DKNDCGEA@?$AAt?$AAt?$AA?$AA@ 10016cc0     libucrt:lcidtoname_downlevel.obj
 0002:00002cc8       ??_C@_15MGIFMDPL@?$AAp?$AAa?$AA?$AA@ 10016cc8     libucrt:lcidtoname_downlevel.obj
 0002:00002cd0       ??_C@_15HCNDBBA@?$AAg?$AAu?$AA?$AA@ 10016cd0     libucrt:lcidtoname_downlevel.obj
 0002:00002cd8       ??_C@_15FNBEIBON@?$AAt?$AAa?$AA?$AA@ 10016cd8     libucrt:lcidtoname_downlevel.obj
 0002:00002ce0       ??_C@_15NCHGBGLK@?$AAt?$AAe?$AA?$AA@ 10016ce0     libucrt:lcidtoname_downlevel.obj
 0002:00002ce8       ??_C@_15PHPHCBPF@?$AAk?$AAn?$AA?$AA@ 10016ce8     libucrt:lcidtoname_downlevel.obj
 0002:00002cf0       ??_C@_15DLGBCKMP@?$AAm?$AAr?$AA?$AA@ 10016cf0     libucrt:lcidtoname_downlevel.obj
 0002:00002cf8       ??_C@_15EABBLBFF@?$AAs?$AAa?$AA?$AA@ 10016cf8     libucrt:lcidtoname_downlevel.obj
 0002:00002d00       ??_C@_15CBKOMCOI@?$AAm?$AAn?$AA?$AA@ 10016d00     libucrt:lcidtoname_downlevel.obj
 0002:00002d08       ??_C@_15CKDMCJAF@?$AAg?$AAl?$AA?$AA@ 10016d08     libucrt:lcidtoname_downlevel.obj
 0002:00002d10       ??_C@_17CNJFBPG@?$AAk?$AAo?$AAk?$AA?$AA@ 10016d10     libucrt:lcidtoname_downlevel.obj
 0002:00002d18       ??_C@_17FFBJICPL@?$AAs?$AAy?$AAr?$AA?$AA@ 10016d18     libucrt:lcidtoname_downlevel.obj
 0002:00002d20       ??_C@_17KPNDCPAF@?$AAd?$AAi?$AAv?$AA?$AA@ 10016d20     libucrt:lcidtoname_downlevel.obj
 0002:00002d28       ??_C@_1M@OKAHONE@?$AAa?$AAr?$AA?9?$AAS?$AAA?$AA?$AA@ 10016d28     libucrt:lcidtoname_downlevel.obj
 0002:00002d34       ??_C@_1M@FFFIGIGK@?$AAb?$AAg?$AA?9?$AAB?$AAG?$AA?$AA@ 10016d34     libucrt:lcidtoname_downlevel.obj
 0002:00002d40       ??_C@_1M@BJNKEDC@?$AAc?$AAa?$AA?9?$AAE?$AAS?$AA?$AA@ 10016d40     libucrt:lcidtoname_downlevel.obj
 0002:00002d4c       ??_C@_1M@IJJHFJHA@?$AAc?$AAs?$AA?9?$AAC?$AAZ?$AA?$AA@ 10016d4c     libucrt:lcidtoname_downlevel.obj
 0002:00002d58       ??_C@_1M@CLPEOBGI@?$AAd?$AAa?$AA?9?$AAD?$AAK?$AA?$AA@ 10016d58     libucrt:lcidtoname_downlevel.obj
 0002:00002d64       ??_C@_1M@MCMADGCB@?$AAd?$AAe?$AA?9?$AAD?$AAE?$AA?$AA@ 10016d64     libucrt:lcidtoname_downlevel.obj
 0002:00002d70       ??_C@_1M@OOCKEMAM@?$AAe?$AAl?$AA?9?$AAG?$AAR?$AA?$AA@ 10016d70     libucrt:lcidtoname_downlevel.obj
 0002:00002d7c       ??_C@_1M@DDNJFGID@?$AAf?$AAi?$AA?9?$AAF?$AAI?$AA?$AA@ 10016d7c     libucrt:lcidtoname_downlevel.obj
 0002:00002d88       ??_C@_1M@GLIPPMAC@?$AAf?$AAr?$AA?9?$AAF?$AAR?$AA?$AA@ 10016d88     libucrt:lcidtoname_downlevel.obj
 0002:00002d94       ??_C@_1M@GFMCHPE@?$AAh?$AAe?$AA?9?$AAI?$AAL?$AA?$AA@ 10016d94     libucrt:lcidtoname_downlevel.obj
 0002:00002da0       ??_C@_1M@MHLPGNKM@?$AAh?$AAu?$AA?9?$AAH?$AAU?$AA?$AA@ 10016da0     libucrt:lcidtoname_downlevel.obj
 0002:00002dac       ??_C@_1M@LPDDNNPN@?$AAi?$AAs?$AA?9?$AAI?$AAS?$AA?$AA@ 10016dac     libucrt:lcidtoname_downlevel.obj
 0002:00002db8       ??_C@_1M@MADIPODN@?$AAi?$AAt?$AA?9?$AAI?$AAT?$AA?$AA@ 10016db8     libucrt:lcidtoname_downlevel.obj
 0002:00002dc4       ??_C@_1M@IHBJJGG@?$AAn?$AAl?$AA?9?$AAN?$AAL?$AA?$AA@ 10016dc4     libucrt:lcidtoname_downlevel.obj
 0002:00002dd0       ??_C@_1M@EANAGDL@?$AAn?$AAb?$AA?9?$AAN?$AAO?$AA?$AA@ 10016dd0     libucrt:lcidtoname_downlevel.obj
 0002:00002ddc       ??_C@_1M@NEIEMEGP@?$AAp?$AAl?$AA?9?$AAP?$AAL?$AA?$AA@ 10016ddc     libucrt:lcidtoname_downlevel.obj
 0002:00002de8       ??_C@_1M@BOCFIGEP@?$AAp?$AAt?$AA?9?$AAB?$AAR?$AA?$AA@ 10016de8     libucrt:lcidtoname_downlevel.obj
 0002:00002df4       ??_C@_1M@IMPFOPBG@?$AAr?$AAo?$AA?9?$AAR?$AAO?$AA?$AA@ 10016df4     libucrt:lcidtoname_downlevel.obj
 0002:00002e00       ??_C@_1M@IDNNEJMM@?$AAr?$AAu?$AA?9?$AAR?$AAU?$AA?$AA@ 10016e00     libucrt:lcidtoname_downlevel.obj
 0002:00002e0c       ??_C@_1M@LILEEOGM@?$AAh?$AAr?$AA?9?$AAH?$AAR?$AA?$AA@ 10016e0c     libucrt:lcidtoname_downlevel.obj
 0002:00002e18       ??_C@_1M@FKIFEHPB@?$AAs?$AAk?$AA?9?$AAS?$AAK?$AA?$AA@ 10016e18     libucrt:lcidtoname_downlevel.obj
 0002:00002e24       ??_C@_1M@LJMAMNPJ@?$AAs?$AAq?$AA?9?$AAA?$AAL?$AA?$AA@ 10016e24     libucrt:lcidtoname_downlevel.obj
 0002:00002e30       ??_C@_1M@GIAKDKJK@?$AAs?$AAv?$AA?9?$AAS?$AAE?$AA?$AA@ 10016e30     libucrt:lcidtoname_downlevel.obj
 0002:00002e3c       ??_C@_1M@MKJKIKCL@?$AAt?$AAh?$AA?9?$AAT?$AAH?$AA?$AA@ 10016e3c     libucrt:lcidtoname_downlevel.obj
 0002:00002e48       ??_C@_1M@MFLCCMPB@?$AAt?$AAr?$AA?9?$AAT?$AAR?$AA?$AA@ 10016e48     libucrt:lcidtoname_downlevel.obj
 0002:00002e54       ??_C@_1M@OIJHDKJN@?$AAu?$AAr?$AA?9?$AAP?$AAK?$AA?$AA@ 10016e54     libucrt:lcidtoname_downlevel.obj
 0002:00002e60       ??_C@_1M@LHIPCIEK@?$AAi?$AAd?$AA?9?$AAI?$AAD?$AA?$AA@ 10016e60     libucrt:lcidtoname_downlevel.obj
 0002:00002e6c       ??_C@_1M@MFMOBGI@?$AAu?$AAk?$AA?9?$AAU?$AAA?$AA?$AA@ 10016e6c     libucrt:lcidtoname_downlevel.obj
 0002:00002e78       ??_C@_1M@OBGLJIPL@?$AAb?$AAe?$AA?9?$AAB?$AAY?$AA?$AA@ 10016e78     libucrt:lcidtoname_downlevel.obj
 0002:00002e84       ??_C@_1M@BCFAJEAD@?$AAs?$AAl?$AA?9?$AAS?$AAI?$AA?$AA@ 10016e84     libucrt:lcidtoname_downlevel.obj
 0002:00002e90       ??_C@_1M@FKFFEDDN@?$AAe?$AAt?$AA?9?$AAE?$AAE?$AA?$AA@ 10016e90     libucrt:lcidtoname_downlevel.obj
 0002:00002e9c       ??_C@_1M@KGKKAACI@?$AAl?$AAv?$AA?9?$AAL?$AAV?$AA?$AA@ 10016e9c     libucrt:lcidtoname_downlevel.obj
 0002:00002ea8       ??_C@_1M@IFGBIJO@?$AAl?$AAt?$AA?9?$AAL?$AAT?$AA?$AA@ 10016ea8     libucrt:lcidtoname_downlevel.obj
 0002:00002eb4       ??_C@_1M@FGEAHEDM@?$AAf?$AAa?$AA?9?$AAI?$AAR?$AA?$AA@ 10016eb4     libucrt:lcidtoname_downlevel.obj
 0002:00002ec0       ??_C@_1M@KBMAIBFN@?$AAv?$AAi?$AA?9?$AAV?$AAN?$AA?$AA@ 10016ec0     libucrt:lcidtoname_downlevel.obj
 0002:00002ecc       ??_C@_1M@GPCBKDJK@?$AAh?$AAy?$AA?9?$AAA?$AAM?$AA?$AA@ 10016ecc     libucrt:lcidtoname_downlevel.obj
 0002:00002ed8       ??_C@_1BG@BECMDDJB@?$AAa?$AAz?$AA?9?$AAA?$AAZ?$AA?9?$AAL?$AAa?$AAt?$AAn?$AA?$AA@ 10016ed8     libucrt:lcidtoname_downlevel.obj
 0002:00002ef0       ??_C@_1M@MAOFCAEA@?$AAe?$AAu?$AA?9?$AAE?$AAS?$AA?$AA@ 10016ef0     libucrt:lcidtoname_downlevel.obj
 0002:00002efc       ??_C@_1M@IGHABKPI@?$AAm?$AAk?$AA?9?$AAM?$AAK?$AA?$AA@ 10016efc     libucrt:lcidtoname_downlevel.obj
 0002:00002f08       ??_C@_1M@IAIGNEJG@?$AAt?$AAn?$AA?9?$AAZ?$AAA?$AA?$AA@ 10016f08     libucrt:lcidtoname_downlevel.obj
 0002:00002f14       ??_C@_1M@IIJCOJFA@?$AAx?$AAh?$AA?9?$AAZ?$AAA?$AA?$AA@ 10016f14     libucrt:lcidtoname_downlevel.obj
 0002:00002f20       ??_C@_1M@LGPJHNJH@?$AAz?$AAu?$AA?9?$AAZ?$AAA?$AA?$AA@ 10016f20     libucrt:lcidtoname_downlevel.obj
 0002:00002f2c       ??_C@_1M@HOKAOIO@?$AAa?$AAf?$AA?9?$AAZ?$AAA?$AA?$AA@ 10016f2c     libucrt:lcidtoname_downlevel.obj
 0002:00002f38       ??_C@_1M@DPCLHLIE@?$AAk?$AAa?$AA?9?$AAG?$AAE?$AA?$AA@ 10016f38     libucrt:lcidtoname_downlevel.obj
 0002:00002f44       ??_C@_1M@BLKMHJBI@?$AAf?$AAo?$AA?9?$AAF?$AAO?$AA?$AA@ 10016f44     libucrt:lcidtoname_downlevel.obj
 0002:00002f50       ??_C@_1M@LGGJAPPB@?$AAh?$AAi?$AA?9?$AAI?$AAN?$AA?$AA@ 10016f50     libucrt:lcidtoname_downlevel.obj
 0002:00002f5c       ??_C@_1M@FIKPIHFE@?$AAm?$AAt?$AA?9?$AAM?$AAT?$AA?$AA@ 10016f5c     libucrt:lcidtoname_downlevel.obj
 0002:00002f68       ??_C@_1M@HEGGPBFA@?$AAs?$AAe?$AA?9?$AAN?$AAO?$AA?$AA@ 10016f68     libucrt:lcidtoname_downlevel.obj
 0002:00002f74       ??_C@_1M@EIBJEEPA@?$AAm?$AAs?$AA?9?$AAM?$AAY?$AA?$AA@ 10016f74     libucrt:lcidtoname_downlevel.obj
 0002:00002f80       ??_C@_1M@FHLBGMPP@?$AAk?$AAk?$AA?9?$AAK?$AAZ?$AA?$AA@ 10016f80     libucrt:lcidtoname_downlevel.obj
 0002:00002f8c       ??_C@_1M@NGJJLCGI@?$AAk?$AAy?$AA?9?$AAK?$AAG?$AA?$AA@ 10016f8c     libucrt:lcidtoname_downlevel.obj
 0002:00002f98       ??_C@_1M@GIENNBFC@?$AAs?$AAw?$AA?9?$AAK?$AAE?$AA?$AA@ 10016f98     libucrt:lcidtoname_downlevel.obj
 0002:00002fa4       ??_C@_1BG@NDGMJIMJ@?$AAu?$AAz?$AA?9?$AAU?$AAZ?$AA?9?$AAL?$AAa?$AAt?$AAn?$AA?$AA@ 10016fa4     libucrt:lcidtoname_downlevel.obj
 0002:00002fbc       ??_C@_1M@IDCCIHBC@?$AAt?$AAt?$AA?9?$AAR?$AAU?$AA?$AA@ 10016fbc     libucrt:lcidtoname_downlevel.obj
 0002:00002fc8       ??_C@_1M@LOICPMOJ@?$AAb?$AAn?$AA?9?$AAI?$AAN?$AA?$AA@ 10016fc8     libucrt:lcidtoname_downlevel.obj
 0002:00002fd4       ??_C@_1M@KPKKNEAH@?$AAp?$AAa?$AA?9?$AAI?$AAN?$AA?$AA@ 10016fd4     libucrt:lcidtoname_downlevel.obj
 0002:00002fe0       ??_C@_1M@PJGPPBOG@?$AAg?$AAu?$AA?9?$AAI?$AAN?$AA?$AA@ 10016fe0     libucrt:lcidtoname_downlevel.obj
 0002:00002fec       ??_C@_1M@KMKMOPHI@?$AAt?$AAa?$AA?9?$AAI?$AAN?$AA?$AA@ 10016fec     libucrt:lcidtoname_downlevel.obj
 0002:00002ff8       ??_C@_1M@KFEHEPAC@?$AAt?$AAe?$AA?9?$AAI?$AAN?$AA?$AA@ 10016ff8     libucrt:lcidtoname_downlevel.obj
 0002:00003004       ??_C@_1M@CDCLMGHI@?$AAk?$AAn?$AA?9?$AAI?$AAN?$AA?$AA@ 10017004     libucrt:lcidtoname_downlevel.obj
 0002:00003010       ??_C@_1M@MIODLDKF@?$AAm?$AAl?$AA?9?$AAI?$AAN?$AA?$AA@ 10017010     libucrt:lcidtoname_downlevel.obj
 0002:0000301c       ??_C@_1M@PBIEACPO@?$AAm?$AAr?$AA?9?$AAI?$AAN?$AA?$AA@ 1001701c     libucrt:lcidtoname_downlevel.obj
 0002:00003028       ??_C@_1M@NIDEAGPH@?$AAs?$AAa?$AA?9?$AAI?$AAN?$AA?$AA@ 10017028     libucrt:lcidtoname_downlevel.obj
 0002:00003034       ??_C@_1M@FHIHCBIO@?$AAm?$AAn?$AA?9?$AAM?$AAN?$AA?$AA@ 10017034     libucrt:lcidtoname_downlevel.obj
 0002:00003040       ??_C@_1M@JAIJPENP@?$AAc?$AAy?$AA?9?$AAG?$AAB?$AA?$AA@ 10017040     libucrt:lcidtoname_downlevel.obj
 0002:0000304c       ??_C@_1M@PHGFBEPN@?$AAg?$AAl?$AA?9?$AAE?$AAS?$AA?$AA@ 1001704c     libucrt:lcidtoname_downlevel.obj
 0002:00003058       ??_C@_1O@KPIPDNCP@?$AAk?$AAo?$AAk?$AA?9?$AAI?$AAN?$AA?$AA@ 10017058     libucrt:lcidtoname_downlevel.obj
 0002:00003068       ??_C@_1O@KNHJLDJA@?$AAs?$AAy?$AAr?$AA?9?$AAS?$AAY?$AA?$AA@ 10017068     libucrt:lcidtoname_downlevel.obj
 0002:00003078       ??_C@_1O@MKEKBLAH@?$AAd?$AAi?$AAv?$AA?9?$AAM?$AAV?$AA?$AA@ 10017078     libucrt:lcidtoname_downlevel.obj
 0002:00003088       ??_C@_1O@OHDCKDDF@?$AAq?$AAu?$AAz?$AA?9?$AAB?$AAO?$AA?$AA@ 10017088     libucrt:lcidtoname_downlevel.obj
 0002:00003098       ??_C@_1M@LEPJNLFD@?$AAn?$AAs?$AA?9?$AAZ?$AAA?$AA?$AA@ 10017098     libucrt:lcidtoname_downlevel.obj
 0002:000030a4       ??_C@_1M@OMLEIIJB@?$AAm?$AAi?$AA?9?$AAN?$AAZ?$AA?$AA@ 100170a4     libucrt:lcidtoname_downlevel.obj
 0002:000030b0       ??_C@_1M@PMPEAILG@?$AAa?$AAr?$AA?9?$AAI?$AAQ?$AA?$AA@ 100170b0     libucrt:lcidtoname_downlevel.obj
 0002:000030bc       ??_C@_1M@CNKPNOEE@?$AAd?$AAe?$AA?9?$AAC?$AAH?$AA?$AA@ 100170bc     libucrt:lcidtoname_downlevel.obj
 0002:000030c8       ??_C@_1M@LKMGMLKO@?$AAe?$AAn?$AA?9?$AAG?$AAB?$AA?$AA@ 100170c8     libucrt:lcidtoname_downlevel.obj
 0002:000030d4       ??_C@_1M@PGKJFFGL@?$AAe?$AAs?$AA?9?$AAM?$AAX?$AA?$AA@ 100170d4     libucrt:lcidtoname_downlevel.obj
 0002:000030e0       ??_C@_1M@DNNANBDC@?$AAf?$AAr?$AA?9?$AAB?$AAE?$AA?$AA@ 100170e0     libucrt:lcidtoname_downlevel.obj
 0002:000030ec       ??_C@_1M@HLGMDFHM@?$AAi?$AAt?$AA?9?$AAC?$AAH?$AA?$AA@ 100170ec     libucrt:lcidtoname_downlevel.obj
 0002:000030f8       ??_C@_1M@CLLBGJH@?$AAn?$AAl?$AA?9?$AAB?$AAE?$AA?$AA@ 100170f8     libucrt:lcidtoname_downlevel.obj
 0002:00003104       ??_C@_1M@BODBOGLF@?$AAn?$AAn?$AA?9?$AAN?$AAO?$AA?$AA@ 10017104     libucrt:lcidtoname_downlevel.obj
 0002:00003110       ??_C@_1M@HFFAHKAD@?$AAp?$AAt?$AA?9?$AAP?$AAT?$AA?$AA@ 10017110     libucrt:lcidtoname_downlevel.obj
 0002:0000311c       ??_C@_1BG@LNOAKHIE@?$AAs?$AAr?$AA?9?$AAS?$AAP?$AA?9?$AAL?$AAa?$AAt?$AAn?$AA?$AA@ 1001711c     libucrt:lcidtoname_downlevel.obj
 0002:00003134       ??_C@_1M@HBMHBGAK@?$AAs?$AAv?$AA?9?$AAF?$AAI?$AA?$AA@ 10017134     libucrt:lcidtoname_downlevel.obj
 0002:00003140       ??_C@_1BG@DGCJGJBE@?$AAa?$AAz?$AA?9?$AAA?$AAZ?$AA?9?$AAC?$AAy?$AAr?$AAl?$AA?$AA@ 10017140     libucrt:lcidtoname_downlevel.obj
 0002:00003158       ??_C@_1M@KEJDAAHB@?$AAs?$AAe?$AA?9?$AAS?$AAE?$AA?$AA@ 10017158     libucrt:lcidtoname_downlevel.obj
 0002:00003164       ??_C@_1M@HEIBJJAD@?$AAm?$AAs?$AA?9?$AAB?$AAN?$AA?$AA@ 10017164     libucrt:lcidtoname_downlevel.obj
 0002:00003170       ??_C@_1BG@PBGJMCEM@?$AAu?$AAz?$AA?9?$AAU?$AAZ?$AA?9?$AAC?$AAy?$AAr?$AAl?$AA?$AA@ 10017170     libucrt:lcidtoname_downlevel.obj
 0002:00003188       ??_C@_1O@LAOBCMDF@?$AAq?$AAu?$AAz?$AA?9?$AAE?$AAC?$AA?$AA@ 10017188     libucrt:lcidtoname_downlevel.obj
 0002:00003198       ??_C@_1M@POEEMAIO@?$AAa?$AAr?$AA?9?$AAE?$AAG?$AA?$AA@ 10017198     libucrt:lcidtoname_downlevel.obj
 0002:000031a4       ??_C@_1M@EFAKDEDL@?$AAz?$AAh?$AA?9?$AAH?$AAK?$AA?$AA@ 100171a4     libucrt:lcidtoname_downlevel.obj
 0002:000031b0       ??_C@_1M@HKKIJHGI@?$AAd?$AAe?$AA?9?$AAA?$AAT?$AA?$AA@ 100171b0     libucrt:lcidtoname_downlevel.obj
 0002:000031bc       ??_C@_1M@KBFBEHJF@?$AAe?$AAn?$AA?9?$AAA?$AAU?$AA?$AA@ 100171bc     libucrt:lcidtoname_downlevel.obj
 0002:000031c8       ??_C@_1M@MNPLFAAH@?$AAe?$AAs?$AA?9?$AAE?$AAS?$AA?$AA@ 100171c8     libucrt:lcidtoname_downlevel.obj
 0002:000031d4       ??_C@_1M@HJOOJFMA@?$AAf?$AAr?$AA?9?$AAC?$AAA?$AA?$AA@ 100171d4     libucrt:lcidtoname_downlevel.obj
 0002:000031e0       ??_C@_1BG@JPOFPNAB@?$AAs?$AAr?$AA?9?$AAS?$AAP?$AA?9?$AAC?$AAy?$AAr?$AAl?$AA?$AA@ 100171e0     libucrt:lcidtoname_downlevel.obj
 0002:000031f8       ??_C@_1M@LNFOCMOB@?$AAs?$AAe?$AA?9?$AAF?$AAI?$AA?$AA@ 100171f8     libucrt:lcidtoname_downlevel.obj
 0002:00003204       ??_C@_1O@MGJBOAMB@?$AAq?$AAu?$AAz?$AA?9?$AAP?$AAE?$AA?$AA@ 10017204     libucrt:lcidtoname_downlevel.obj
 0002:00003214       ??_C@_1M@GJINLBOK@?$AAa?$AAr?$AA?9?$AAL?$AAY?$AA?$AA@ 10017214     libucrt:lcidtoname_downlevel.obj
 0002:00003220       ??_C@_1M@GGMNHJNL@?$AAz?$AAh?$AA?9?$AAS?$AAG?$AA?$AA@ 10017220     libucrt:lcidtoname_downlevel.obj
 0002:0000322c       ??_C@_1M@HOIKODND@?$AAd?$AAe?$AA?9?$AAL?$AAU?$AA?$AA@ 1001722c     libucrt:lcidtoname_downlevel.obj
 0002:00003238       ??_C@_1M@DDOCCGFG@?$AAe?$AAn?$AA?9?$AAC?$AAA?$AA?$AA@ 10017238     libucrt:lcidtoname_downlevel.obj
 0002:00003244       ??_C@_1M@BNOEMJLF@?$AAe?$AAs?$AA?9?$AAG?$AAT?$AA?$AA@ 10017244     libucrt:lcidtoname_downlevel.obj
 0002:00003250       ??_C@_1M@EOGNKEK@?$AAf?$AAr?$AA?9?$AAC?$AAH?$AA?$AA@ 10017250     libucrt:lcidtoname_downlevel.obj
 0002:0000325c       ??_C@_1M@FLIDJFHL@?$AAh?$AAr?$AA?9?$AAB?$AAA?$AA?$AA@ 1001725c     libucrt:lcidtoname_downlevel.obj
 0002:00003268       ??_C@_1O@FMCELNAJ@?$AAs?$AAm?$AAj?$AA?9?$AAN?$AAO?$AA?$AA@ 10017268     libucrt:lcidtoname_downlevel.obj
 0002:00003278       ??_C@_1M@JHGLJMGJ@?$AAa?$AAr?$AA?9?$AAD?$AAZ?$AA?$AA@ 10017278     libucrt:lcidtoname_downlevel.obj
 0002:00003284       ??_C@_1M@JKKFDCNP@?$AAz?$AAh?$AA?9?$AAM?$AAO?$AA?$AA@ 10017284     libucrt:lcidtoname_downlevel.obj
 0002:00003290       ??_C@_1M@GEEFALPE@?$AAd?$AAe?$AA?9?$AAL?$AAI?$AA?$AA@ 10017290     libucrt:lcidtoname_downlevel.obj
 0002:0000329c       ??_C@_1M@IGEOFBG@?$AAe?$AAn?$AA?9?$AAN?$AAZ?$AA?$AA@ 1001729c     libucrt:lcidtoname_downlevel.obj
 0002:000032a8       ??_C@_1M@KDBONEHP@?$AAe?$AAs?$AA?9?$AAC?$AAR?$AA?$AA@ 100172a8     libucrt:lcidtoname_downlevel.obj
 0002:000032b4       ??_C@_1M@FHMDOHNN@?$AAf?$AAr?$AA?9?$AAL?$AAU?$AA?$AA@ 100172b4     libucrt:lcidtoname_downlevel.obj
 0002:000032c0       ??_C@_1BG@NFKKMAFG@?$AAb?$AAs?$AA?9?$AAB?$AAA?$AA?9?$AAL?$AAa?$AAt?$AAn?$AA?$AA@ 100172c0     libucrt:lcidtoname_downlevel.obj
 0002:000032d8       ??_C@_1O@IMNBEMCI@?$AAs?$AAm?$AAj?$AA?9?$AAS?$AAE?$AA?$AA@ 100172d8     libucrt:lcidtoname_downlevel.obj
 0002:000032e8       ??_C@_1M@DHHMBNDP@?$AAa?$AAr?$AA?9?$AAM?$AAA?$AA?$AA@ 100172e8     libucrt:lcidtoname_downlevel.obj
 0002:000032f4       ??_C@_1M@BNBLJCGH@?$AAe?$AAn?$AA?9?$AAI?$AAE?$AA?$AA@ 100172f4     libucrt:lcidtoname_downlevel.obj
 0002:00003300       ??_C@_1M@GEPAFMDL@?$AAe?$AAs?$AA?9?$AAP?$AAA?$AA?$AA@ 10017300     libucrt:lcidtoname_downlevel.obj
 0002:0000330c       ??_C@_1M@OJONDMDL@?$AAf?$AAr?$AA?9?$AAM?$AAC?$AA?$AA@ 1001730c     libucrt:lcidtoname_downlevel.obj
 0002:00003318       ??_C@_1BG@OBCNFJB@?$AAs?$AAr?$AA?9?$AAB?$AAA?$AA?9?$AAL?$AAa?$AAt?$AAn?$AA?$AA@ 10017318     libucrt:lcidtoname_downlevel.obj
 0002:00003330       ??_C@_1O@KEMEEGPO@?$AAs?$AAm?$AAa?$AA?9?$AAN?$AAO?$AA?$AA@ 10017330     libucrt:lcidtoname_downlevel.obj
 0002:00003340       ??_C@_1M@ELMGFODK@?$AAa?$AAr?$AA?9?$AAT?$AAN?$AA?$AA@ 10017340     libucrt:lcidtoname_downlevel.obj
 0002:0000334c       ??_C@_1M@BHDLHFAF@?$AAe?$AAn?$AA?9?$AAZ?$AAA?$AA?$AA@ 1001734c     libucrt:lcidtoname_downlevel.obj
 0002:00003358       ??_C@_1M@BMGIGLIF@?$AAe?$AAs?$AA?9?$AAD?$AAO?$AA?$AA@ 10017358     libucrt:lcidtoname_downlevel.obj
 0002:00003364       ??_C@_1BG@CMBHIPBE@?$AAs?$AAr?$AA?9?$AAB?$AAA?$AA?9?$AAC?$AAy?$AAr?$AAl?$AA?$AA@ 10017364     libucrt:lcidtoname_downlevel.obj
 0002:0000337c       ??_C@_1O@HEDBLHNP@?$AAs?$AAm?$AAa?$AA?9?$AAS?$AAE?$AA?$AA@ 1001737c     libucrt:lcidtoname_downlevel.obj
 0002:0000338c       ??_C@_1M@DAGCADIM@?$AAa?$AAr?$AA?9?$AAO?$AAM?$AA?$AA@ 1001738c     libucrt:lcidtoname_downlevel.obj
 0002:00003398       ??_C@_1M@FODLMICG@?$AAe?$AAn?$AA?9?$AAJ?$AAM?$AA?$AA@ 10017398     libucrt:lcidtoname_downlevel.obj
 0002:000033a4       ??_C@_1M@DNMLCIHB@?$AAe?$AAs?$AA?9?$AAV?$AAE?$AA?$AA@ 100173a4     libucrt:lcidtoname_downlevel.obj
 0002:000033b0       ??_C@_1O@EOKHMKJK@?$AAs?$AAm?$AAs?$AA?9?$AAF?$AAI?$AA?$AA@ 100173b0     libucrt:lcidtoname_downlevel.obj
 0002:000033c0       ??_C@_1M@CAFJMKOF@?$AAa?$AAr?$AA?9?$AAY?$AAE?$AA?$AA@ 100173c0     libucrt:lcidtoname_downlevel.obj
 0002:000033cc       ??_C@_1M@CBFHIJLI@?$AAe?$AAn?$AA?9?$AAC?$AAB?$AA?$AA@ 100173cc     libucrt:lcidtoname_downlevel.obj
 0002:000033d8       ??_C@_1M@BGNFLDN@?$AAe?$AAs?$AA?9?$AAC?$AAO?$AA?$AA@ 100173d8     libucrt:lcidtoname_downlevel.obj
 0002:000033e4       ??_C@_1O@JMPHMAMC@?$AAs?$AAm?$AAn?$AA?9?$AAF?$AAI?$AA?$AA@ 100173e4     libucrt:lcidtoname_downlevel.obj
 0002:000033f4       ??_C@_1M@JLANABKE@?$AAa?$AAr?$AA?9?$AAS?$AAY?$AA?$AA@ 100173f4     libucrt:lcidtoname_downlevel.obj
 0002:00003400       ??_C@_1M@HPKGCFGN@?$AAe?$AAn?$AA?9?$AAB?$AAZ?$AA?$AA@ 10017400     libucrt:lcidtoname_downlevel.obj
 0002:0000340c       ??_C@_1M@OLJCMLGM@?$AAe?$AAs?$AA?9?$AAP?$AAE?$AA?$AA@ 1001740c     libucrt:lcidtoname_downlevel.obj
 0002:00003418       ??_C@_1M@MKKGFKLE@?$AAa?$AAr?$AA?9?$AAJ?$AAO?$AA?$AA@ 10017418     libucrt:lcidtoname_downlevel.obj
 0002:00003424       ??_C@_1M@EKPGLDNI@?$AAe?$AAn?$AA?9?$AAT?$AAT?$AA?$AA@ 10017424     libucrt:lcidtoname_downlevel.obj
 0002:00003430       ??_C@_1M@OONGHFHE@?$AAe?$AAs?$AA?9?$AAA?$AAR?$AA?$AA@ 10017430     libucrt:lcidtoname_downlevel.obj
 0002:0000343c       ??_C@_1M@OOJFGBHE@?$AAa?$AAr?$AA?9?$AAL?$AAB?$AA?$AA@ 1001743c     libucrt:lcidtoname_downlevel.obj
 0002:00003448       ??_C@_1M@GCEJHNEG@?$AAe?$AAn?$AA?9?$AAZ?$AAW?$AA?$AA@ 10017448     libucrt:lcidtoname_downlevel.obj
 0002:00003454       ??_C@_1M@JNOCAHJI@?$AAe?$AAs?$AA?9?$AAE?$AAC?$AA?$AA@ 10017454     libucrt:lcidtoname_downlevel.obj
 0002:00003460       ??_C@_1M@JEFHPGGB@?$AAa?$AAr?$AA?9?$AAK?$AAW?$AA?$AA@ 10017460     libucrt:lcidtoname_downlevel.obj
 0002:0000346c       ??_C@_1M@MLKIBJOJ@?$AAe?$AAn?$AA?9?$AAP?$AAH?$AA?$AA@ 1001746c     libucrt:lcidtoname_downlevel.obj
 0002:00003478       ??_C@_1M@BDNIPEND@?$AAe?$AAs?$AA?9?$AAC?$AAL?$AA?$AA@ 10017478     libucrt:lcidtoname_downlevel.obj
 0002:00003484       ??_C@_1M@MPNMEKBD@?$AAa?$AAr?$AA?9?$AAA?$AAE?$AA?$AA@ 10017484     libucrt:lcidtoname_downlevel.obj
 0002:00003490       ??_C@_1M@KBJALCPI@?$AAe?$AAs?$AA?9?$AAU?$AAY?$AA?$AA@ 10017490     libucrt:lcidtoname_downlevel.obj
 0002:0000349c       ??_C@_1M@LLCCOAGA@?$AAa?$AAr?$AA?9?$AAB?$AAH?$AA?$AA@ 1001749c     libucrt:lcidtoname_downlevel.obj
 0002:000034a8       ??_C@_1M@PBFNCDEL@?$AAe?$AAs?$AA?9?$AAP?$AAY?$AA?$AA@ 100174a8     libucrt:lcidtoname_downlevel.obj
 0002:000034b4       ??_C@_1M@EDGINPNP@?$AAa?$AAr?$AA?9?$AAQ?$AAA?$AA?$AA@ 100174b4     libucrt:lcidtoname_downlevel.obj
 0002:000034c0       ??_C@_1M@MKDBIIJI@?$AAe?$AAs?$AA?9?$AAB?$AAO?$AA?$AA@ 100174c0     libucrt:lcidtoname_downlevel.obj
 0002:000034cc       ??_C@_1M@CPKKEBLD@?$AAe?$AAs?$AA?9?$AAS?$AAV?$AA?$AA@ 100174cc     libucrt:lcidtoname_downlevel.obj
 0002:000034d8       ??_C@_1M@NDBGMMJL@?$AAe?$AAs?$AA?9?$AAH?$AAN?$AA?$AA@ 100174d8     libucrt:lcidtoname_downlevel.obj
 0002:000034e4       ??_C@_1M@JIJIBHDP@?$AAe?$AAs?$AA?9?$AAN?$AAI?$AA?$AA@ 100174e4     libucrt:lcidtoname_downlevel.obj
 0002:000034f0       ??_C@_1M@CGFMKEEK@?$AAe?$AAs?$AA?9?$AAP?$AAR?$AA?$AA@ 100174f0     libucrt:lcidtoname_downlevel.obj
 0002:000034fc       ??_C@_1O@ICJHKIIK@?$AAz?$AAh?$AA?9?$AAC?$AAH?$AAT?$AA?$AA@ 100174fc     libucrt:lcidtoname_downlevel.obj
 0002:0000350c       ??_C@_15CLNEJCE@?$AAs?$AAr?$AA?$AA@ 1001750c     libucrt:lcidtoname_downlevel.obj
 0002:00003c38       ??_C@_1M@KAHEKEIG@?$AAa?$AAf?$AA?9?$AAz?$AAa?$AA?$AA@ 10017c38     libucrt:lcidtoname_downlevel.obj
 0002:00003c44       ??_C@_1M@GIECOABL@?$AAa?$AAr?$AA?9?$AAa?$AAe?$AA?$AA@ 10017c44     libucrt:lcidtoname_downlevel.obj
 0002:00003c50       ??_C@_1M@BMLMEKGI@?$AAa?$AAr?$AA?9?$AAb?$AAh?$AA?$AA@ 10017c50     libucrt:lcidtoname_downlevel.obj
 0002:00003c5c       ??_C@_1M@DAPFDGGB@?$AAa?$AAr?$AA?9?$AAd?$AAz?$AA?$AA@ 10017c5c     libucrt:lcidtoname_downlevel.obj
 0002:00003c68       ??_C@_1M@FJNKGKIG@?$AAa?$AAr?$AA?9?$AAe?$AAg?$AA?$AA@ 10017c68     libucrt:lcidtoname_downlevel.obj
 0002:00003c74       ??_C@_1M@FLGKKCLO@?$AAa?$AAr?$AA?9?$AAi?$AAq?$AA?$AA@ 10017c74     libucrt:lcidtoname_downlevel.obj
 0002:00003c80       ??_C@_1M@GNDIPALM@?$AAa?$AAr?$AA?9?$AAj?$AAo?$AA?$AA@ 10017c80     libucrt:lcidtoname_downlevel.obj
 0002:00003c8c       ??_C@_1M@DDMJFMGJ@?$AAa?$AAr?$AA?9?$AAk?$AAw?$AA?$AA@ 10017c8c     libucrt:lcidtoname_downlevel.obj
 0002:00003c98       ??_C@_1M@EJALMLHM@?$AAa?$AAr?$AA?9?$AAl?$AAb?$AA?$AA@ 10017c98     libucrt:lcidtoname_downlevel.obj
 0002:00003ca4       ??_C@_1M@MOBDBLOC@?$AAa?$AAr?$AA?9?$AAl?$AAy?$AA?$AA@ 10017ca4     libucrt:lcidtoname_downlevel.obj
 0002:00003cb0       ??_C@_1M@JAOCLHDH@?$AAa?$AAr?$AA?9?$AAm?$AAa?$AA?$AA@ 10017cb0     libucrt:lcidtoname_downlevel.obj
 0002:00003cbc       ??_C@_1M@JHPMKJIE@?$AAa?$AAr?$AA?9?$AAo?$AAm?$AA?$AA@ 10017cbc     libucrt:lcidtoname_downlevel.obj
 0002:00003cc8       ??_C@_1M@OEPGHFNH@?$AAa?$AAr?$AA?9?$AAq?$AAa?$AA?$AA@ 10017cc8     libucrt:lcidtoname_downlevel.obj
 0002:00003cd4       ??_C@_1M@KJDONENM@?$AAa?$AAr?$AA?9?$AAs?$AAa?$AA?$AA@ 10017cd4     libucrt:lcidtoname_downlevel.obj
 0002:00003ce0       ??_C@_1M@DMJDKLKM@?$AAa?$AAr?$AA?9?$AAs?$AAy?$AA?$AA@ 10017ce0     libucrt:lcidtoname_downlevel.obj
 0002:00003cec       ??_C@_1M@OMFIPEDC@?$AAa?$AAr?$AA?9?$AAt?$AAn?$AA?$AA@ 10017cec     libucrt:lcidtoname_downlevel.obj
 0002:00003cf8       ??_C@_1M@IHMHGAON@?$AAa?$AAr?$AA?9?$AAy?$AAe?$AA?$AA@ 10017cf8     libucrt:lcidtoname_downlevel.obj
 0002:00003d04       ??_C@_1BG@KDCPGJGB@?$AAa?$AAz?$AA?9?$AAa?$AAz?$AA?9?$AAc?$AAy?$AAr?$AAl?$AA?$AA@ 10017d04     libucrt:lcidtoname_downlevel.obj
 0002:00003d1c       ??_C@_1BG@IBCKDDOE@?$AAa?$AAz?$AA?9?$AAa?$AAz?$AA?9?$AAl?$AAa?$AAt?$AAn?$AA?$AA@ 10017d1c     libucrt:lcidtoname_downlevel.obj
 0002:00003d34       ??_C@_1M@EGPFDCPD@?$AAb?$AAe?$AA?9?$AAb?$AAy?$AA?$AA@ 10017d34     libucrt:lcidtoname_downlevel.obj
 0002:00003d40       ??_C@_1M@PCMGMCGC@?$AAb?$AAg?$AA?9?$AAb?$AAg?$AA?$AA@ 10017d40     libucrt:lcidtoname_downlevel.obj
 0002:00003d4c       ??_C@_1M@BJBMFGOB@?$AAb?$AAn?$AA?9?$AAi?$AAn?$AA?$AA@ 10017d4c     libucrt:lcidtoname_downlevel.obj
 0002:00003d58       ??_C@_1BG@EAKMMACD@?$AAb?$AAs?$AA?9?$AAb?$AAa?$AA?9?$AAl?$AAa?$AAt?$AAn?$AA?$AA@ 10017d58     libucrt:lcidtoname_downlevel.obj
 0002:00003d70       ??_C@_1M@KGADAODK@?$AAc?$AAa?$AA?9?$AAe?$AAs?$AA?$AA@ 10017d70     libucrt:lcidtoname_downlevel.obj
 0002:00003d7c       ??_C@_1M@COAJPDHI@?$AAc?$AAs?$AA?9?$AAc?$AAz?$AA?$AA@ 10017d7c     libucrt:lcidtoname_downlevel.obj
 0002:00003d88       ??_C@_1M@DHBHFONH@?$AAc?$AAy?$AA?9?$AAg?$AAb?$AA?$AA@ 10017d88     libucrt:lcidtoname_downlevel.obj
 0002:00003d94       ??_C@_1M@IMGKELGA@?$AAd?$AAa?$AA?9?$AAd?$AAk?$AA?$AA@ 10017d94     libucrt:lcidtoname_downlevel.obj
 0002:00003da0       ??_C@_1M@NNDGDNGA@?$AAd?$AAe?$AA?9?$AAa?$AAt?$AA?$AA@ 10017da0     libucrt:lcidtoname_downlevel.obj
 0002:00003dac       ??_C@_1M@IKDBHEEM@?$AAd?$AAe?$AA?9?$AAc?$AAh?$AA?$AA@ 10017dac     libucrt:lcidtoname_downlevel.obj
 0002:00003db8       ??_C@_1M@GFFOJMCJ@?$AAd?$AAe?$AA?9?$AAd?$AAe?$AA?$AA@ 10017db8     libucrt:lcidtoname_downlevel.obj
 0002:00003dc4       ??_C@_1M@MDNLKBPM@?$AAd?$AAe?$AA?9?$AAl?$AAi?$AA?$AA@ 10017dc4     libucrt:lcidtoname_downlevel.obj
 0002:00003dd0       ??_C@_1M@NJBEEJNL@?$AAd?$AAe?$AA?9?$AAl?$AAu?$AA?$AA@ 10017dd0     libucrt:lcidtoname_downlevel.obj
 0002:00003ddc       ??_C@_1O@GNNELBAP@?$AAd?$AAi?$AAv?$AA?9?$AAm?$AAv?$AA?$AA@ 10017ddc     libucrt:lcidtoname_downlevel.obj
 0002:00003dec       ??_C@_1M@EJLEOGAE@?$AAe?$AAl?$AA?9?$AAg?$AAr?$AA?$AA@ 10017dec     libucrt:lcidtoname_downlevel.obj
 0002:00003df8       ??_C@_1M@GMPONJN@?$AAe?$AAn?$AA?9?$AAa?$AAu?$AA?$AA@ 10017df8     libucrt:lcidtoname_downlevel.obj
 0002:00003e04       ??_C@_1M@NIDIIPGF@?$AAe?$AAn?$AA?9?$AAb?$AAz?$AA?$AA@ 10017e04     libucrt:lcidtoname_downlevel.obj
 0002:00003e10       ??_C@_1M@JEHMIMFO@?$AAe?$AAn?$AA?9?$AAc?$AAa?$AA?$AA@ 10017e10     libucrt:lcidtoname_downlevel.obj
 0002:00003e1c       ??_C@_1M@IGMJCDLA@?$AAe?$AAn?$AA?9?$AAc?$AAb?$AA?$AA@ 10017e1c     libucrt:lcidtoname_downlevel.obj
 0002:00003e28       ??_C@_1M@BNFIGBKG@?$AAe?$AAn?$AA?9?$AAg?$AAb?$AA?$AA@ 10017e28     libucrt:lcidtoname_downlevel.obj
 0002:00003e34       ??_C@_1M@LKIFDIGP@?$AAe?$AAn?$AA?9?$AAi?$AAe?$AA?$AA@ 10017e34     libucrt:lcidtoname_downlevel.obj
 0002:00003e40       ??_C@_1M@PJKFGCCO@?$AAe?$AAn?$AA?9?$AAj?$AAm?$AA?$AA@ 10017e40     libucrt:lcidtoname_downlevel.obj
 0002:00003e4c       ??_C@_1M@KPPKEPBO@?$AAe?$AAn?$AA?9?$AAn?$AAz?$AA?$AA@ 10017e4c     libucrt:lcidtoname_downlevel.obj
 0002:00003e58       ??_C@_1M@GMDGLDOB@?$AAe?$AAn?$AA?9?$AAp?$AAh?$AA?$AA@ 10017e58     libucrt:lcidtoname_downlevel.obj
 0002:00003e64       ??_C@_1M@ONGIBJNA@?$AAe?$AAn?$AA?9?$AAt?$AAt?$AA?$AA@ 10017e64     libucrt:lcidtoname_downlevel.obj
 0002:00003e70       ??_C@_1M@LLODPCMM@?$AAe?$AAn?$AA?9?$AAu?$AAs?$AA?$AA@ 10017e70     libucrt:lcidtoname_downlevel.obj
 0002:00003e7c       ??_C@_1M@LAKFNPAN@?$AAe?$AAn?$AA?9?$AAz?$AAa?$AA?$AA@ 10017e7c     libucrt:lcidtoname_downlevel.obj
 0002:00003e88       ??_C@_1M@MFNHNHEO@?$AAe?$AAn?$AA?9?$AAz?$AAw?$AA?$AA@ 10017e88     libucrt:lcidtoname_downlevel.obj
 0002:00003e94       ??_C@_1M@EJEINPHM@?$AAe?$AAs?$AA?9?$AAa?$AAr?$AA?$AA@ 10017e94     libucrt:lcidtoname_downlevel.obj
 0002:00003ea0       ??_C@_1M@GNKPCCJA@?$AAe?$AAs?$AA?9?$AAb?$AAo?$AA?$AA@ 10017ea0     libucrt:lcidtoname_downlevel.obj
 0002:00003eac       ??_C@_1M@LEEGFONL@?$AAe?$AAs?$AA?9?$AAc?$AAl?$AA?$AA@ 10017eac     libucrt:lcidtoname_downlevel.obj
 0002:00003eb8       ??_C@_1M@KGPDPBDF@?$AAe?$AAs?$AA?9?$AAc?$AAo?$AA?$AA@ 10017eb8     libucrt:lcidtoname_downlevel.obj
 0002:00003ec4       ??_C@_1M@EIAHOHH@?$AAe?$AAs?$AA?9?$AAc?$AAr?$AA?$AA@ 10017ec4     libucrt:lcidtoname_downlevel.obj
 0002:00003ed0       ??_C@_1M@LLPGMBIN@?$AAe?$AAs?$AA?9?$AAd?$AAo?$AA?$AA@ 10017ed0     libucrt:lcidtoname_downlevel.obj
 0002:00003edc       ??_C@_1M@DKHMKNJA@?$AAe?$AAs?$AA?9?$AAe?$AAc?$AA?$AA@ 10017edc     libucrt:lcidtoname_downlevel.obj
 0002:00003ee8       ??_C@_1M@GKGFPKAP@?$AAe?$AAs?$AA?9?$AAe?$AAs?$AA?$AA@ 10017ee8     libucrt:lcidtoname_downlevel.obj
 0002:00003ef4       ??_C@_1M@LKHKGDLN@?$AAe?$AAs?$AA?9?$AAg?$AAt?$AA?$AA@ 10017ef4     libucrt:lcidtoname_downlevel.obj
 0002:00003f00       ??_C@_1M@HEIIGGJD@?$AAe?$AAs?$AA?9?$AAh?$AAn?$AA?$AA@ 10017f00     libucrt:lcidtoname_downlevel.obj
 0002:00003f0c       ??_C@_1M@FBDHPPGD@?$AAe?$AAs?$AA?9?$AAm?$AAx?$AA?$AA@ 10017f0c     libucrt:lcidtoname_downlevel.obj
 0002:00003f18       ??_C@_1M@DPAGLNDH@?$AAe?$AAs?$AA?9?$AAn?$AAi?$AA?$AA@ 10017f18     libucrt:lcidtoname_downlevel.obj
 0002:00003f24       ??_C@_1M@MDGOPGDD@?$AAe?$AAs?$AA?9?$AAp?$AAa?$AA?$AA@ 10017f24     libucrt:lcidtoname_downlevel.obj
 0002:00003f30       ??_C@_1M@EMAMGBGE@?$AAe?$AAs?$AA?9?$AAp?$AAe?$AA?$AA@ 10017f30     libucrt:lcidtoname_downlevel.obj
 0002:00003f3c       ??_C@_1M@IBMCAOEC@?$AAe?$AAs?$AA?9?$AAp?$AAr?$AA?$AA@ 10017f3c     libucrt:lcidtoname_downlevel.obj
 0002:00003f48       ??_C@_1M@FGMDIJED@?$AAe?$AAs?$AA?9?$AAp?$AAy?$AA?$AA@ 10017f48     libucrt:lcidtoname_downlevel.obj
 0002:00003f54       ??_C@_1M@IIDEOLLL@?$AAe?$AAs?$AA?9?$AAs?$AAv?$AA?$AA@ 10017f54     libucrt:lcidtoname_downlevel.obj
 0002:00003f60       ??_C@_1M@GAOBIPA@?$AAe?$AAs?$AA?9?$AAu?$AAy?$AA?$AA@ 10017f60     libucrt:lcidtoname_downlevel.obj
 0002:00003f6c       ??_C@_1M@JKFFICHJ@?$AAe?$AAs?$AA?9?$AAv?$AAe?$AA?$AA@ 10017f6c     libucrt:lcidtoname_downlevel.obj
 0002:00003f78       ??_C@_1M@PNMLOJDF@?$AAe?$AAt?$AA?9?$AAe?$AAe?$AA?$AA@ 10017f78     libucrt:lcidtoname_downlevel.obj
 0002:00003f84       ??_C@_1M@GHHLIKEI@?$AAe?$AAu?$AA?9?$AAe?$AAs?$AA?$AA@ 10017f84     libucrt:lcidtoname_downlevel.obj
 0002:00003f90       ??_C@_1M@PBNONODE@?$AAf?$AAa?$AA?9?$AAi?$AAr?$AA?$AA@ 10017f90     libucrt:lcidtoname_downlevel.obj
 0002:00003f9c       ??_C@_1M@JEEHPMIL@?$AAf?$AAi?$AA?9?$AAf?$AAi?$AA?$AA@ 10017f9c     libucrt:lcidtoname_downlevel.obj
 0002:00003fa8       ??_C@_1M@LMDCNDBA@?$AAf?$AAo?$AA?9?$AAf?$AAo?$AA?$AA@ 10017fa8     libucrt:lcidtoname_downlevel.obj
 0002:00003fb4       ??_C@_1M@JKEOHLDK@?$AAf?$AAr?$AA?9?$AAb?$AAe?$AA?$AA@ 10017fb4     libucrt:lcidtoname_downlevel.obj
 0002:00003fc0       ??_C@_1M@NOHADPMI@?$AAf?$AAr?$AA?9?$AAc?$AAa?$AA?$AA@ 10017fc0     libucrt:lcidtoname_downlevel.obj
 0002:00003fcc       ??_C@_1M@KDHIHAEC@?$AAf?$AAr?$AA?9?$AAc?$AAh?$AA?$AA@ 10017fcc     libucrt:lcidtoname_downlevel.obj
 0002:00003fd8       ??_C@_1M@MMBBFGAK@?$AAf?$AAr?$AA?9?$AAf?$AAr?$AA?$AA@ 10017fd8     libucrt:lcidtoname_downlevel.obj
 0002:00003fe4       ??_C@_1M@PAFNENNF@?$AAf?$AAr?$AA?9?$AAl?$AAu?$AA?$AA@ 10017fe4     libucrt:lcidtoname_downlevel.obj
 0002:00003ff0       ??_C@_1M@EOHDJGDD@?$AAf?$AAr?$AA?9?$AAm?$AAc?$AA?$AA@ 10017ff0     libucrt:lcidtoname_downlevel.obj
 0002:00003ffc       ??_C@_1M@FAPLLOPF@?$AAg?$AAl?$AA?9?$AAe?$AAs?$AA?$AA@ 10017ffc     libucrt:lcidtoname_downlevel.obj
 0002:00004008       ??_C@_1M@FOPBFLOO@?$AAg?$AAu?$AA?9?$AAi?$AAn?$AA?$AA@ 10018008     libucrt:lcidtoname_downlevel.obj
 0002:00004014       ??_C@_1M@KBMCINPM@?$AAh?$AAe?$AA?9?$AAi?$AAl?$AA?$AA@ 10018014     libucrt:lcidtoname_downlevel.obj
 0002:00004020       ??_C@_1M@BBPHKFPJ@?$AAh?$AAi?$AA?9?$AAi?$AAn?$AA?$AA@ 10018020     libucrt:lcidtoname_downlevel.obj
 0002:0000402c       ??_C@_1M@PMBNDPHD@?$AAh?$AAr?$AA?9?$AAb?$AAa?$AA?$AA@ 1001802c     libucrt:lcidtoname_downlevel.obj
 0002:00004038       ??_C@_1M@BPCKOEGE@?$AAh?$AAr?$AA?9?$AAh?$AAr?$AA?$AA@ 10018038     libucrt:lcidtoname_downlevel.obj
 0002:00004044       ??_C@_1M@GACBMHKE@?$AAh?$AAu?$AA?9?$AAh?$AAu?$AA?$AA@ 10018044     libucrt:lcidtoname_downlevel.obj
 0002:00004050       ??_C@_1M@MILPAJJC@?$AAh?$AAy?$AA?9?$AAa?$AAm?$AA?$AA@ 10018050     libucrt:lcidtoname_downlevel.obj
 0002:0000405c       ??_C@_1M@BABBICEC@?$AAi?$AAd?$AA?9?$AAi?$AAd?$AA?$AA@ 1001805c     libucrt:lcidtoname_downlevel.obj
 0002:00004068       ??_C@_1M@BIKNHHPF@?$AAi?$AAs?$AA?9?$AAi?$AAs?$AA?$AA@ 10018068     libucrt:lcidtoname_downlevel.obj
 0002:00004074       ??_C@_1M@NMPCJPHE@?$AAi?$AAt?$AA?9?$AAc?$AAh?$AA?$AA@ 10018074     libucrt:lcidtoname_downlevel.obj
 0002:00004080       ??_C@_1M@GHKGFEDF@?$AAi?$AAt?$AA?9?$AAi?$AAt?$AA?$AA@ 10018080     libucrt:lcidtoname_downlevel.obj
 0002:0000408c       ??_C@_1M@NIEJCJJA@?$AAj?$AAa?$AA?9?$AAj?$AAp?$AA?$AA@ 1001808c     libucrt:lcidtoname_downlevel.obj
 0002:00004098       ??_C@_1M@JILFNBIM@?$AAk?$AAa?$AA?9?$AAg?$AAe?$AA?$AA@ 10018098     libucrt:lcidtoname_downlevel.obj
 0002:000040a4       ??_C@_1M@PACPMGPH@?$AAk?$AAk?$AA?9?$AAk?$AAz?$AA?$AA@ 100180a4     libucrt:lcidtoname_downlevel.obj
 0002:000040b0       ??_C@_1M@IELFGMHA@?$AAk?$AAn?$AA?9?$AAi?$AAn?$AA?$AA@ 100180b0     libucrt:lcidtoname_downlevel.obj
 0002:000040bc       ??_C@_1O@IBBJHCH@?$AAk?$AAo?$AAk?$AA?9?$AAi?$AAn?$AA?$AA@ 100180bc     libucrt:lcidtoname_downlevel.obj
 0002:000040cc       ??_C@_1M@DMHAEOGC@?$AAk?$AAo?$AA?9?$AAk?$AAr?$AA?$AA@ 100180cc     libucrt:lcidtoname_downlevel.obj
 0002:000040d8       ??_C@_1M@HBAHBIGA@?$AAk?$AAy?$AA?9?$AAk?$AAg?$AA?$AA@ 100180d8     libucrt:lcidtoname_downlevel.obj
 0002:000040e4       ??_C@_1M@KPMILCJG@?$AAl?$AAt?$AA?9?$AAl?$AAt?$AA?$AA@ 100180e4     libucrt:lcidtoname_downlevel.obj
 0002:000040f0       ??_C@_1M@BDEKKCA@?$AAl?$AAv?$AA?9?$AAl?$AAv?$AA?$AA@ 100180f0     libucrt:lcidtoname_downlevel.obj
 0002:000040fc       ??_C@_1M@ELCKCCJJ@?$AAm?$AAi?$AA?9?$AAn?$AAz?$AA?$AA@ 100180fc     libucrt:lcidtoname_downlevel.obj
 0002:00004108       ??_C@_1M@CBOOLAPA@?$AAm?$AAk?$AA?9?$AAm?$AAk?$AA?$AA@ 10018108     libucrt:lcidtoname_downlevel.obj
 0002:00004114       ??_C@_1M@GPHNBJKN@?$AAm?$AAl?$AA?9?$AAi?$AAn?$AA?$AA@ 10018114     libucrt:lcidtoname_downlevel.obj
 0002:00004120       ??_C@_1M@PABJILIG@?$AAm?$AAn?$AA?9?$AAm?$AAn?$AA?$AA@ 10018120     libucrt:lcidtoname_downlevel.obj
 0002:0000412c       ??_C@_1M@FGBKKIPG@?$AAm?$AAr?$AA?9?$AAi?$AAn?$AA?$AA@ 1001812c     libucrt:lcidtoname_downlevel.obj
 0002:00004138       ??_C@_1M@NDBPDDAL@?$AAm?$AAs?$AA?9?$AAb?$AAn?$AA?$AA@ 10018138     libucrt:lcidtoname_downlevel.obj
 0002:00004144       ??_C@_1M@OPIHOOPI@?$AAm?$AAs?$AA?9?$AAm?$AAy?$AA?$AA@ 10018144     libucrt:lcidtoname_downlevel.obj
 0002:00004150       ??_C@_1M@PPDBCNFM@?$AAm?$AAt?$AA?9?$AAm?$AAt?$AA?$AA@ 10018150     libucrt:lcidtoname_downlevel.obj
 0002:0000415c       ??_C@_1M@KDJDKMDD@?$AAn?$AAb?$AA?9?$AAn?$AAo?$AA?$AA@ 1001815c     libucrt:lcidtoname_downlevel.obj
 0002:00004168       ??_C@_1M@KFCFLMJP@?$AAn?$AAl?$AA?9?$AAb?$AAe?$AA?$AA@ 10018168     libucrt:lcidtoname_downlevel.obj
 0002:00004174       ??_C@_1M@KPOPDDGO@?$AAn?$AAl?$AA?9?$AAn?$AAl?$AA?$AA@ 10018174     libucrt:lcidtoname_downlevel.obj
 0002:00004180       ??_C@_1M@LJKPEMLN@?$AAn?$AAn?$AA?9?$AAn?$AAo?$AA?$AA@ 10018180     libucrt:lcidtoname_downlevel.obj
 0002:0000418c       ??_C@_1M@BDGHHBFL@?$AAn?$AAs?$AA?9?$AAz?$AAa?$AA?$AA@ 1001818c     libucrt:lcidtoname_downlevel.obj
 0002:00004198       ??_C@_1M@IDEHOAP@?$AAp?$AAa?$AA?9?$AAi?$AAn?$AA?$AA@ 10018198     libucrt:lcidtoname_downlevel.obj
 0002:000041a4       ??_C@_1M@HDBKGOGH@?$AAp?$AAl?$AA?9?$AAp?$AAl?$AA?$AA@ 100181a4     libucrt:lcidtoname_downlevel.obj
 0002:000041b0       ??_C@_1M@LJLLCMEH@?$AAp?$AAt?$AA?9?$AAb?$AAr?$AA?$AA@ 100181b0     libucrt:lcidtoname_downlevel.obj
 0002:000041bc       ??_C@_1M@NCMONAAL@?$AAp?$AAt?$AA?9?$AAp?$AAt?$AA?$AA@ 100181bc     libucrt:lcidtoname_downlevel.obj
 0002:000041c8       ??_C@_1O@EAKMAJDN@?$AAq?$AAu?$AAz?$AA?9?$AAb?$AAo?$AA?$AA@ 100181c8     libucrt:lcidtoname_downlevel.obj
 0002:000041d8       ??_C@_1O@BHHPIGDN@?$AAq?$AAu?$AAz?$AA?9?$AAe?$AAc?$AA?$AA@ 100181d8     libucrt:lcidtoname_downlevel.obj
 0002:000041e8       ??_C@_1O@GBAPEKMJ@?$AAq?$AAu?$AAz?$AA?9?$AAp?$AAe?$AA?$AA@ 100181e8     libucrt:lcidtoname_downlevel.obj
 0002:000041f8       ??_C@_1M@CLGLEFBO@?$AAr?$AAo?$AA?9?$AAr?$AAo?$AA?$AA@ 100181f8     libucrt:lcidtoname_downlevel.obj
 0002:00004204       ??_C@_1M@CEEDODME@?$AAr?$AAu?$AA?9?$AAr?$AAu?$AA?$AA@ 10018204     libucrt:lcidtoname_downlevel.obj
 0002:00004210       ??_C@_1M@HPKKKMPP@?$AAs?$AAa?$AA?9?$AAi?$AAn?$AA?$AA@ 10018210     libucrt:lcidtoname_downlevel.obj
 0002:0000421c       ??_C@_1M@BKMAIGOJ@?$AAs?$AAe?$AA?9?$AAf?$AAi?$AA?$AA@ 1001821c     libucrt:lcidtoname_downlevel.obj
 0002:00004228       ??_C@_1M@NDPIFLFI@?$AAs?$AAe?$AA?9?$AAn?$AAo?$AA?$AA@ 10018228     libucrt:lcidtoname_downlevel.obj
 0002:00004234       ??_C@_1M@DANKKHJ@?$AAs?$AAe?$AA?9?$AAs?$AAe?$AA?$AA@ 10018234     libucrt:lcidtoname_downlevel.obj
 0002:00004240       ??_C@_1M@PNBLONPJ@?$AAs?$AAk?$AA?9?$AAs?$AAk?$AA?$AA@ 10018240     libucrt:lcidtoname_downlevel.obj
 0002:0000424c       ??_C@_1M@LFMODOAL@?$AAs?$AAl?$AA?9?$AAs?$AAi?$AA?$AA@ 1001824c     libucrt:lcidtoname_downlevel.obj
 0002:00004258       ??_C@_1O@DFKOMPG@?$AAs?$AAm?$AAa?$AA?9?$AAn?$AAo?$AA?$AA@ 10018258     libucrt:lcidtoname_downlevel.obj
 0002:00004268       ??_C@_1O@NDKPBNNH@?$AAs?$AAm?$AAa?$AA?9?$AAs?$AAe?$AA?$AA@ 10018268     libucrt:lcidtoname_downlevel.obj
 0002:00004278       ??_C@_1O@PLLKBHAB@?$AAs?$AAm?$AAj?$AA?9?$AAn?$AAo?$AA?$AA@ 10018278     libucrt:lcidtoname_downlevel.obj
 0002:00004288       ??_C@_1O@CLEPOGCA@?$AAs?$AAm?$AAj?$AA?9?$AAs?$AAe?$AA?$AA@ 10018288     libucrt:lcidtoname_downlevel.obj
 0002:00004298       ??_C@_1O@DLGJGKMK@?$AAs?$AAm?$AAn?$AA?9?$AAf?$AAi?$AA?$AA@ 10018298     libucrt:lcidtoname_downlevel.obj
 0002:000042a8       ??_C@_1O@OJDJGAJC@?$AAs?$AAm?$AAs?$AA?9?$AAf?$AAi?$AA?$AA@ 100182a8     libucrt:lcidtoname_downlevel.obj
 0002:000042b8       ??_C@_1M@BOFOGHPB@?$AAs?$AAq?$AA?9?$AAa?$AAl?$AA?$AA@ 100182b8     libucrt:lcidtoname_downlevel.obj
 0002:000042c4       ??_C@_1BG@LJBBIPGB@?$AAs?$AAr?$AA?9?$AAb?$AAa?$AA?9?$AAc?$AAy?$AAr?$AAl?$AA?$AA@ 100182c4     libucrt:lcidtoname_downlevel.obj
 0002:000042dc       ??_C@_1BG@JLBENFOE@?$AAs?$AAr?$AA?9?$AAb?$AAa?$AA?9?$AAl?$AAa?$AAt?$AAn?$AA?$AA@ 100182dc     libucrt:lcidtoname_downlevel.obj
 0002:000042f4       ??_C@_1BG@KODPNHE@?$AAs?$AAr?$AA?9?$AAs?$AAp?$AA?9?$AAc?$AAy?$AAr?$AAl?$AA?$AA@ 100182f4     libucrt:lcidtoname_downlevel.obj
 0002:0000430c       ??_C@_1BG@CIOGKHPB@?$AAs?$AAr?$AA?9?$AAs?$AAp?$AA?9?$AAl?$AAa?$AAt?$AAn?$AA?$AA@ 1001830c     libucrt:lcidtoname_downlevel.obj
 0002:00004324       ??_C@_1M@NGFJLMAC@?$AAs?$AAv?$AA?9?$AAf?$AAi?$AA?$AA@ 10018324     libucrt:lcidtoname_downlevel.obj
 0002:00004330       ??_C@_1M@MPJEJAJC@?$AAs?$AAv?$AA?9?$AAs?$AAe?$AA?$AA@ 10018330     libucrt:lcidtoname_downlevel.obj
 0002:0000433c       ??_C@_1M@MPNDHLFK@?$AAs?$AAw?$AA?9?$AAk?$AAe?$AA?$AA@ 1001833c     libucrt:lcidtoname_downlevel.obj
 0002:00004348       ??_C@_1O@KOHBJJI@?$AAs?$AAy?$AAr?$AA?9?$AAs?$AAy?$AA?$AA@ 10018348     libucrt:lcidtoname_downlevel.obj
 0002:00004358       ??_C@_1M@LDCEFHA@?$AAt?$AAa?$AA?9?$AAi?$AAn?$AA?$AA@ 10018358     libucrt:lcidtoname_downlevel.obj
 0002:00004364       ??_C@_1M@CNJOFAK@?$AAt?$AAe?$AA?9?$AAi?$AAn?$AA?$AA@ 10018364     libucrt:lcidtoname_downlevel.obj
 0002:00004370       ??_C@_1M@GNAECACD@?$AAt?$AAh?$AA?9?$AAt?$AAh?$AA?$AA@ 10018370     libucrt:lcidtoname_downlevel.obj
 0002:0000437c       ??_C@_1M@CHBIHOJO@?$AAt?$AAn?$AA?9?$AAz?$AAa?$AA?$AA@ 1001837c     libucrt:lcidtoname_downlevel.obj
 0002:00004388       ??_C@_1M@GCCMIGPJ@?$AAt?$AAr?$AA?9?$AAt?$AAr?$AA?$AA@ 10018388     libucrt:lcidtoname_downlevel.obj
 0002:00004394       ??_C@_1M@CELMCNBK@?$AAt?$AAt?$AA?9?$AAr?$AAu?$AA?$AA@ 10018394     libucrt:lcidtoname_downlevel.obj
 0002:000043a0       ??_C@_1M@KLMCELGA@?$AAu?$AAk?$AA?9?$AAu?$AAa?$AA?$AA@ 100183a0     libucrt:lcidtoname_downlevel.obj
 0002:000043ac       ??_C@_1M@EPAJJAJF@?$AAu?$AAr?$AA?9?$AAp?$AAk?$AA?$AA@ 100183ac     libucrt:lcidtoname_downlevel.obj
 0002:000043b8       ??_C@_1BG@GEGPMCDJ@?$AAu?$AAz?$AA?9?$AAu?$AAz?$AA?9?$AAc?$AAy?$AAr?$AAl?$AA?$AA@ 100183b8     libucrt:lcidtoname_downlevel.obj
 0002:000043d0       ??_C@_1BG@EGGKJILM@?$AAu?$AAz?$AA?9?$AAu?$AAz?$AA?9?$AAl?$AAa?$AAt?$AAn?$AA?$AA@ 100183d0     libucrt:lcidtoname_downlevel.obj
 0002:000043e8       ??_C@_1M@GFOCLFF@?$AAv?$AAi?$AA?9?$AAv?$AAn?$AA?$AA@ 100183e8     libucrt:lcidtoname_downlevel.obj
 0002:000043f4       ??_C@_1M@CPAMEDFI@?$AAx?$AAh?$AA?9?$AAz?$AAa?$AA?$AA@ 100183f4     libucrt:lcidtoname_downlevel.obj
 0002:00004400       ??_C@_1O@EBKIFIGN@?$AAz?$AAh?$AA?9?$AAc?$AAh?$AAs?$AA?$AA@ 10018400     libucrt:lcidtoname_downlevel.obj
 0002:00004410       ??_C@_1O@NMHPGANE@?$AAz?$AAh?$AA?9?$AAc?$AAh?$AAt?$AA?$AA@ 10018410     libucrt:lcidtoname_downlevel.obj
 0002:00004420       ??_C@_1M@LPINJOMC@?$AAz?$AAh?$AA?9?$AAc?$AAn?$AA?$AA@ 10018420     libucrt:lcidtoname_downlevel.obj
 0002:0000442c       ??_C@_1M@OCJEJODD@?$AAz?$AAh?$AA?9?$AAh?$AAk?$AA?$AA@ 1001842c     libucrt:lcidtoname_downlevel.obj
 0002:00004438       ??_C@_1M@DNDLJINH@?$AAz?$AAh?$AA?9?$AAm?$AAo?$AA?$AA@ 10018438     libucrt:lcidtoname_downlevel.obj
 0002:00004444       ??_C@_1M@MBFDNDND@?$AAz?$AAh?$AA?9?$AAs?$AAg?$AA?$AA@ 10018444     libucrt:lcidtoname_downlevel.obj
 0002:00004450       ??_C@_1M@IMEPLEPE@?$AAz?$AAh?$AA?9?$AAt?$AAw?$AA?$AA@ 10018450     libucrt:lcidtoname_downlevel.obj
 0002:0000445c       ??_C@_1M@BBGHNHJP@?$AAz?$AAu?$AA?9?$AAz?$AAa?$AA?$AA@ 1001845c     libucrt:lcidtoname_downlevel.obj
 0002:00004468       ?large_power_data@?1??multiply_by_power_of_ten@__crt_strtox@@YA_NAAUbig_integer@2@I@Z@4QBIB 10018468     libucrt:cfout.obj
 0002:00004d70       ?large_power_indices@?1??multiply_by_power_of_ten@__crt_strtox@@YA_NAAUbig_integer@2@I@Z@4QBUunpack_index@?1??12@YA_N0I@Z@B 10018d70     libucrt:cfout.obj
 0002:00004e08       ?small_powers_of_ten@?6??multiply_by_power_of_ten@__crt_strtox@@YA_NAAUbig_integer@2@I@Z@4QBIB 10018e08     libucrt:cfout.obj
 0002:00004e2c       ??_C@_01GBGANLPD@0?$AA@    10018e2c     libucrt:cfout.obj
 0002:00004e30       ??_C@_05DNEBIAHO@1?$CDINF?$AA@ 10018e30     libucrt:cfout.obj
 0002:00004e38       ??_C@_06IMKFLFPG@1?$CDQNAN?$AA@ 10018e38     libucrt:cfout.obj
 0002:00004e40       ??_C@_06PGGFOGJG@1?$CDSNAN?$AA@ 10018e40     libucrt:cfout.obj
 0002:00004e48       ??_C@_05PHHOCPM@1?$CDIND?$AA@ 10018e48     libucrt:cfout.obj
 0002:00004ea8       ??_C@_1BA@BALFACEM@?$AAC?$AAO?$AAN?$AAO?$AAU?$AAT?$AA$?$AA?$AA@ 10018ea8     libucrt:initcon.obj
 0002:00004fc0       __infinity                 10018fc0     libucrt:87tran.obj
 0002:00004fca       __minfinity                10018fca     libucrt:87tran.obj
 0002:00004fd4       __logemax                  10018fd4     libucrt:87tran.obj
 0002:00004ffa       __OP_EXPjmptab             10018ffa     libucrt:87tran.obj
 0002:00005020       __indefinite               10019020     libucrt:87disp.obj
 0002:0000502a       __piby2                    1001902a     libucrt:87disp.obj
 0002:00005034       __piby4                    10019034     libucrt:87disp.obj
 0002:00005068       __DEFAULT_CW_in_mem        10019068     libucrt:common.obj
 0002:0000506a       __pi_by_2_to_61            1001906a     libucrt:common.obj
 0002:000050a4       ??_C@_03MGHMBJCF@log?$AA@  100190a4     libucrt:libm_error.obj
 0002:000050a8       ??_C@_05HGHHAHAP@log10?$AA@ 100190a8     libucrt:libm_error.obj
 0002:000050b0       ??_C@_03KHJOGHMM@exp?$AA@  100190b0     libucrt:libm_error.obj
 0002:000050b4       ??_C@_03JGHBODFD@pow?$AA@  100190b4     libucrt:libm_error.obj
 0002:000050b8       ??_C@_04FIHNOPOL@asin?$AA@ 100190b8     libucrt:libm_error.obj
 0002:000050c0       ??_C@_04PDIFKINK@acos?$AA@ 100190c0     libucrt:libm_error.obj
 0002:000050c8       ??_C@_04EIAKFFMI@sqrt?$AA@ 100190c8     libucrt:libm_error.obj
 0002:000050d0       __real@3ff0000000000000    100190d0     libucrt:libm_error.obj
 0002:000050f0       ___acrt_log10_table_t      100190f0     libucrt:log10_tables.obj
 0002:00005500       ___acrt_log10_table_cb     10019500     libucrt:log10_tables.obj
 0002:00005910       __real@3fe0000000000000    10019910     libucrt:powhlp.obj
 0002:00005918       ??_C@_04FJHINJAO@tanh?$AA@ 10019918     libucrt:fpexcept.obj
 0002:00005920       ??_C@_04MLLJIGOK@atan?$AA@ 10019920     libucrt:fpexcept.obj
 0002:00005928       ??_C@_05KNGEOGJB@atan2?$AA@ 10019928     libucrt:fpexcept.obj
 0002:00005930       ??_C@_03BLEJJJBH@sin?$AA@  10019930     libucrt:fpexcept.obj
 0002:00005934       ??_C@_03LALBNOCG@cos?$AA@  10019934     libucrt:fpexcept.obj
 0002:00005938       ??_C@_03IIINPABG@tan?$AA@  10019938     libucrt:fpexcept.obj
 0002:0000593c       ??_C@_04GFPJNGEK@ceil?$AA@ 1001993c     libucrt:fpexcept.obj
 0002:00005944       ??_C@_05PBJFFIGL@floor?$AA@ 10019944     libucrt:fpexcept.obj
 0002:0000594c       ??_C@_04ODHECPBC@fabs?$AA@ 1001994c     libucrt:fpexcept.obj
 0002:00005954       ??_C@_04EHEDPDJG@modf?$AA@ 10019954     libucrt:fpexcept.obj
 0002:0000595c       ??_C@_05CEJMAHNP@ldexp?$AA@ 1001995c     libucrt:fpexcept.obj
 0002:00005964       ??_C@_05KBKMEMPO@_cabs?$AA@ 10019964     libucrt:fpexcept.obj
 0002:0000596c       ??_C@_06MEIMCGCF@_hypot?$AA@ 1001996c     libucrt:fpexcept.obj
 0002:00005974       ??_C@_04KEPJIHGP@fmod?$AA@ 10019974     libucrt:fpexcept.obj
 0002:0000597c       ??_C@_05GKKHEGJL@frexp?$AA@ 1001997c     libucrt:fpexcept.obj
 0002:00005984       ??_C@_03MJLDFKDL@_y0?$AA@  10019984     libucrt:fpexcept.obj
 0002:00005988       ??_C@_03NAKIGLHK@_y1?$AA@  10019988     libucrt:fpexcept.obj
 0002:0000598c       ??_C@_03ONILCKOB@_yn?$AA@  1001998c     libucrt:fpexcept.obj
 0002:00005990       ??_C@_05JGDBENOH@_logb?$AA@ 10019990     libucrt:fpexcept.obj
 0002:00005998       ??_C@_0L@KDOEJCKC@_nextafter?$AA@ 10019998     libucrt:fpexcept.obj
 0002:00005a90       ??_C@_04COOMCNPB@sinh?$AA@ 10019a90     libucrt:fpexcept.obj
 0002:00005a98       ??_C@_04HPJJNFIM@cosh?$AA@ 10019a98     libucrt:fpexcept.obj
 0002:00005aa0       __d_inf                    10019aa0     libucrt:util.obj
 0002:00005aa8       __d_max                    10019aa8     libucrt:util.obj
 0002:00005ab0       __d_mzero                  10019ab0     libucrt:util.obj
 0002:00005ab8       ??_C@_1BK@DBDEIDLH@?$AAK?$AAE?$AAR?$AAN?$AAE?$AAL?$AA3?$AA2?$AA?4?$AAD?$AAL?$AAL?$AA?$AA@ 10019ab8     DelayImp:delayhlp.obj
 0002:00005ad4       ??_C@_0BI@OMNLIJDB@AcquireSRWLockExclusive?$AA@ 10019ad4     DelayImp:delayhlp.obj
 0002:00005aec       ??_C@_0BI@HMIEPCNJ@ReleaseSRWLockExclusive?$AA@ 10019aec     DelayImp:delayhlp.obj
 0002:00005b08       __load_config_used         10019b08     LIBCMT:loadcfg.obj
 0002:00005b64       ??_C@_0CK@JCPCLECK@external?5memory?5allocation?5limit@ 10019b64     bufferutil.obj
 0002:00005b90       ??_C@_1HK@MAONLLED@?$AAC?$AA?3?$AA?2?$AAU?$AAs?$AAe?$AAr?$AAs?$AA?2?$AAJ?$AAo?$AAe?$AA?2?$AA?4?$AAn?$AAo?$AAd?$AAe?$AA?9?$AAg?$AAy?$AAp?$AA?2?$AA4?$AA?4?$AA2?$AA?4?$AA2?$AA?2?$AAi?$AAn?$AAc@ 10019b90     bufferutil.obj
 0002:00005c0c       ??_C@_1DG@OKCGPKIB@?$AAp?$AAe?$AAr?$AAs?$AAi?$AAs?$AAt?$AAe?$AAn?$AAt?$AA?$CI?$AA?$CJ?$AA?4?$AAI?$AAs?$AAN?$AAe?$AAa?$AAr?$AAD?$AAe?$AAa?$AAt?$AAh?$AA?$CI?$AA?$CJ?$AA?$AA@ 10019c0c     bufferutil.obj
 0002:00005c44       ??_C@_1CO@EGNPJLKI@?$AAp?$AAe?$AAr?$AAs?$AAi?$AAs?$AAt?$AAe?$AAn?$AAt?$AA?$CI?$AA?$CJ?$AA?4?$AAI?$AAs?$AAE?$AAm?$AAp?$AAt?$AAy?$AA?$CI?$AA?$CJ?$AA?$AA@ 10019c44     bufferutil.obj
 0002:00005c78       ??_C@_1EC@NOLNIHNJ@?$AAh?$AAa?$AAn?$AAd?$AAl?$AAe?$AA?9?$AA?$DO?$AAI?$AAn?$AAt?$AAe?$AAr?$AAn?$AAa?$AAl?$AAF?$AAi?$AAe?$AAl?$AAd?$AAC?$AAo?$AAu?$AAn?$AAt?$AA?$CI?$AA?$CJ?$AA?5?$AA?$DO?$AA?5?$AA0@ 10019c78     bufferutil.obj
 0002:00005cbc       ??_C@_1DA@FBGAEOIO@?$AA?$CB?$AAp?$AAe?$AAr?$AAs?$AAi?$AAs?$AAt?$AAe?$AAn?$AAt?$AA?$CI?$AA?$CJ?$AA?4?$AAI?$AAs?$AAE?$AAm?$AAp?$AAt?$AAy?$AA?$CI?$AA?$CJ?$AA?$AA@ 10019cbc     bufferutil.obj
 0002:00005cec       ??_C@_1CO@JCKLEFMA@?$AA?$CB?$AAp?$AAe?$AAr?$AAs?$AAi?$AAs?$AAt?$AAe?$AAn?$AAt?$AA?$CI?$AA?$CJ?$AA?4?$AAI?$AAs?$AAW?$AAe?$AAa?$AAk?$AA?$CI?$AA?$CJ?$AA?$AA@ 10019cec     bufferutil.obj
 0002:00005d1c       ??_C@_1BE@GMLLOIPJ@?$AAr?$AAe?$AAf?$AAs?$AA_?$AA?5?$AA?$DO?$AA?5?$AA0?$AA?$AA@ 10019d1c     bufferutil.obj
 0002:00005d30       ??_C@_1CC@GBFLAAPF@?$AAw?$AAr?$AAa?$AAp?$AA?9?$AA?$DO?$AAr?$AAe?$AAf?$AAs?$AA_?$AA?5?$AA?$DN?$AA?$DN?$AA?5?$AA0?$AA?$AA@ 10019d30     bufferutil.obj
 0002:00005d54       ??_C@_1DI@ELDBKNAK@?$AAw?$AAr?$AAa?$AAp?$AA?9?$AA?$DO?$AAh?$AAa?$AAn?$AAd?$AAl?$AAe?$AA_?$AA?4?$AAI?$AAs?$AAN?$AAe?$AAa?$AAr?$AAD?$AAe?$AAa?$AAt?$AAh?$AA?$CI?$AA?$CJ?$AA?$AA@ 10019d54     bufferutil.obj
 0002:00005d90       ??_C@_1IM@GACIBGHJ@?$AAd?$AAa?$AAt?$AAa?$AA?4?$AAG?$AAe?$AAt?$AAV?$AAa?$AAl?$AAu?$AAe?$AA?$CI?$AA?$CJ?$AA?5?$AA?$DN?$AA?$DN?$AA?5?$AAv?$AA8?$AA?3?$AA?3?$AAL?$AAo?$AAc?$AAa?$AAl?$AA?$DM?$AAv?$AA8?$AA?3@ 10019d90     bufferutil.obj
 0002:00005e1c       ??_C@_06NMLLPGNI@unmask?$AA@ 10019e1c     bufferutil.obj
 0002:00005e24       ??_C@_04LFLEPBN@mask?$AA@  10019e24     bufferutil.obj
 0002:00005e2c       ??_C@_05DPKBJALF@merge?$AA@ 10019e2c     bufferutil.obj
 0002:00005e34       ??_C@_0L@DGEFJNAP@BufferUtil?$AA@ 10019e34     bufferutil.obj
 0002:00005e40       ??_C@_0BF@JIAHKDON@?4?4?2src?2bufferutil?4cc?$AA@ 10019e40     bufferutil.obj
 0002:00005e58       ??_C@_0L@HBBIDNNM@bufferutil?$AA@ 10019e58     bufferutil.obj
 0002:00005e64       ??_7BufferUtil@@6B@        10019e64     bufferutil.obj
 0002:00005e64       ??_7ObjectWrap@node@@6B@   10019e64     bufferutil.obj
 0002:00005e70       ??_7ExternalStringResourceBase@String@v8@@6B@ 10019e70     bufferutil.obj
 0002:00005e78       ??_7ExternalOneByteStringResourceImpl@v8@@6B@ 10019e78     bufferutil.obj
 0002:00005e88       ??_7ExternalStringResource@String@v8@@6B@ 10019e88     bufferutil.obj
 0002:00005e88       ??_7ExternalOneByteStringResource@String@v8@@6B@ 10019e88     bufferutil.obj
 0002:00005e98       ??_7ExternalSourceStream@ScriptCompiler@v8@@6B@ 10019e98     bufferutil.obj
 0002:00005ea8       ??_7Allocator@ArrayBuffer@v8@@6B@ 10019ea8     bufferutil.obj
 0002:00005eb8       ??_7Extension@v8@@6B@      10019eb8     bufferutil.obj
 0002:00005ec0       ??_7PersistentHandleVisitor@v8@@6B@ 10019ec0     bufferutil.obj
 0002:00005ec8       ?kNoLineNumberInfo@Message@v8@@2HB 10019ec8     bufferutil.obj
 0002:00005ec8       ?kNoColumnInfo@Message@v8@@2HB 10019ec8     bufferutil.obj
 0002:00005ec8       ?kNoScriptIdInfo@Message@v8@@2HB 10019ec8     bufferutil.obj
 0002:00005ec8       ?kNoScriptId@UnboundScript@v8@@2HB 10019ec8     bufferutil.obj
 0002:00005ecc       ?kInternalFieldCount@ArrayBufferView@v8@@2HB 10019ecc     bufferutil.obj
 0002:00005ecc       ?kInternalFieldCount@ArrayBuffer@v8@@2HB 10019ecc     bufferutil.obj
 0002:00005ecc       ?kInternalFieldCount@SharedArrayBuffer@v8@@2HB 10019ecc     bufferutil.obj
 0002:00005ed0       ?kMaxLength@String@v8@@2HB 10019ed0     bufferutil.obj
 0002:00005ed4       ??_7ExternalResourceVisitor@v8@@6B@ 10019ed4     bufferutil.obj
 0002:00005edc       ??_C@_08HCOMDCCD@iojs?4exe?$AA@ 10019edc     win_delay_load_hook.obj
 0002:00005ee8       ??_C@_08JDDNMFDB@node?4exe?$AA@ 10019ee8     win_delay_load_hook.obj
 0002:00005f54       ??_R4exception@std@@6B@    10019f54     LIBCMT:throw_bad_alloc.obj
 0002:00005f68       ??_R3exception@std@@8      10019f68     LIBCMT:throw_bad_alloc.obj
 0002:00005f78       ??_R2exception@std@@8      10019f78     LIBCMT:throw_bad_alloc.obj
 0002:00005f80       ??_R1A@?0A@EA@exception@std@@8 10019f80     LIBCMT:throw_bad_alloc.obj
 0002:00005f9c       ??_R4bad_alloc@std@@6B@    10019f9c     LIBCMT:throw_bad_alloc.obj
 0002:00005fb0       ??_R3bad_alloc@std@@8      10019fb0     LIBCMT:throw_bad_alloc.obj
 0002:00005fc0       ??_R2bad_alloc@std@@8      10019fc0     LIBCMT:throw_bad_alloc.obj
 0002:00005fcc       ??_R1A@?0A@EA@bad_alloc@std@@8 10019fcc     LIBCMT:throw_bad_alloc.obj
 0002:00005fe8       ??_R4bad_array_new_length@std@@6B@ 10019fe8     LIBCMT:throw_bad_alloc.obj
 0002:00005ffc       ??_R3bad_array_new_length@std@@8 10019ffc     LIBCMT:throw_bad_alloc.obj
 0002:0000600c       ??_R2bad_array_new_length@std@@8 1001a00c     LIBCMT:throw_bad_alloc.obj
 0002:0000601c       ??_R1A@?0A@EA@bad_array_new_length@std@@8 1001a01c     LIBCMT:throw_bad_alloc.obj
 0002:00006038       ??_R4type_info@@6B@        1001a038     LIBCMT:std_type_info_static.obj
 0002:0000604c       ??_R3type_info@@8          1001a04c     LIBCMT:std_type_info_static.obj
 0002:0000605c       ??_R2type_info@@8          1001a05c     LIBCMT:std_type_info_static.obj
 0002:00006064       ??_R1A@?0A@EA@type_info@@8 1001a064     LIBCMT:std_type_info_static.obj
 0002:00006080       ___safe_se_handler_table   1001a080     <linker-defined>
 0002:00006090       ?_TraceLoggingMetadata@?1??_TlgWrite@__vcrt_trace_logging_provider@@YAJPBU_TlgProvider_t@2@PBXPBU_GUID@@2IPAU_EVENT_DATA_DESCRIPTOR@@@Z@4U_TraceLoggingMetadata_t@2@B 1001a090     libvcruntime:telemetry.obj
 0002:00006143       ?_TraceLoggingMetadataEnd@?1??_TlgWrite@__vcrt_trace_logging_provider@@YAJPBU_TlgProvider_t@2@PBXPBU_GUID@@2IPAU_EVENT_DATA_DESCRIPTOR@@@Z@4EB 1001a143     libvcruntime:telemetry.obj
 0002:000065ac       ___rtc_iaa                 1001a5ac     LIBCMT:_initsect_.obj
 0002:000065b0       ___rtc_izz                 1001a5b0     LIBCMT:_initsect_.obj
 0002:000065b4       ___rtc_taa                 1001a5b4     LIBCMT:_initsect_.obj
 0002:000065b8       ___rtc_tzz                 1001a5b8     LIBCMT:_initsect_.obj
 0002:0000661c       __TI2?AVbad_alloc@std@@    1001a61c     LIBCMT:throw_bad_alloc.obj
 0002:0000662c       __CTA2?AVbad_alloc@std@@   1001a62c     LIBCMT:throw_bad_alloc.obj
 0002:00006638       __CT??_R0?AVbad_alloc@std@@@8??0bad_alloc@std@@QAE@ABV01@@Z12 1001a638     LIBCMT:throw_bad_alloc.obj
 0002:00006654       __CT??_R0?AVexception@std@@@8??0exception@std@@QAE@ABV01@@Z12 1001a654     LIBCMT:throw_bad_alloc.obj
 0002:00006670       __TI3?AVbad_array_new_length@std@@ 1001a670     LIBCMT:throw_bad_alloc.obj
 0002:00006680       __CTA3?AVbad_array_new_length@std@@ 1001a680     LIBCMT:throw_bad_alloc.obj
 0002:00006690       __CT??_R0?AVbad_array_new_length@std@@@8??0bad_array_new_length@std@@QAE@ABV01@@Z12 1001a690     LIBCMT:throw_bad_alloc.obj
 0002:00006a5c       __DELAY_IMPORT_DESCRIPTOR_node_exe 1001aa5c     node:node.exe
 0002:00006a7c       __NULL_DELAY_IMPORT_DESCRIPTOR 1001aa7c     node:node.exe
 0002:00006bc0       \177node_NULL_THUNK_DATA_DLN 1001abc0     node:node.exe
 0002:00007fb4       \177node_NULL_THUNK_DATA_DLB 1001bfb4     node:node.exe
 0002:0000c648       __IMPORT_DESCRIPTOR_KERNEL32 10020648     kernel32:KERNEL32.dll
 0002:0000c65c       __IMPORT_DESCRIPTOR_ADVAPI32 1002065c     advapi32:ADVAPI32.dll
 0002:0000c670       __NULL_IMPORT_DESCRIPTOR   10020670     kernel32:KERNEL32.dll
 0003:00000000       ___security_cookie_complement 10021000     LIBCMT:gs_cookie.obj
 0003:00000004       ___security_cookie         10021004     LIBCMT:gs_cookie.obj
 0003:00000008       ___scrt_native_dllmain_reason 10021008     LIBCMT:utility.obj
 0003:00000010       ___isa_enabled             10021010     LIBCMT:_cpu_disp_.obj
 0003:00000070       __NLG_Destination          10021070     libvcruntime:_exsup_.obj
 0003:00000080       ___abort_behavior          10021080     libucrt:abort.obj
 0003:00000090       __iob                      10021090     libucrt:_file.obj
 0003:00000140       ___acrt_initial_locale_data 10021140     libucrt:nlsdata.obj
 0003:000001f8       ___acrt_initial_locale_pointers 100211f8     libucrt:nlsdata.obj
 0003:00000200       ___acrt_wide_c_locale_string 10021200     libucrt:nlsdata.obj
 0003:000002f8       __mbctype                  100212f8     libucrt:mbctype.obj
 0003:00000400       __mbcasemap                10021400     libucrt:mbctype.obj
 0003:00000500       ___acrt_initial_multibyte_data 10021500     libucrt:mbctype.obj
 0003:00000720       ___acrt_current_multibyte_data 10021720     libucrt:mbctype.obj
 0003:00000728       ___badioinfo               10021728     libucrt:ioinit.obj
 0003:00000758       __pwctype                  10021758     libucrt:ctype.obj
 0003:0000075c       ___globallocalestatus      1002175c     libucrt:glstatus.obj
 0003:00000760       ___acrt_lconv_static_decimal 10021760     libucrt:localeconv.obj
 0003:00000764       ___acrt_lconv_static_W_decimal 10021764     libucrt:localeconv.obj
 0003:00000768       ___acrt_lconv_c            10021768     libucrt:localeconv.obj
 0003:000007c0       ___dcrt_lowio_console_output_handle 100217c0     libucrt:initcon.obj
 0003:000007d0       __fltused                  100217d0     LIBCMT:fltused.obj
 0003:00000804       ___pfnDliNotifyHook2       10021804     win_delay_load_hook.obj
 0003:00000808       ??_R0?AVbad_alloc@std@@@8  10021808     LIBCMT:throw_bad_alloc.obj
 0003:00000824       ??_R0?AVexception@std@@@8  10021824     LIBCMT:throw_bad_alloc.obj
 0003:00000840       ??_R0?AVbad_array_new_length@std@@@8 10021840     LIBCMT:throw_bad_alloc.obj
 0003:00000868       ??_R0?AVtype_info@@@8      10021868     LIBCMT:std_type_info_static.obj
 0003:00000880       __imp_?Value@External@v8@@QBEPAXXZ 10021880     node:node.exe
 0003:00000884       __imp_?New@External@v8@@SA?AV?$Local@VExternal@v8@@@2@PAVIsolate@2@PAX@Z 10021884     node:node.exe
 0003:00000888       __imp_?CollectAllGarbage@Isolate@v8@@AAEXPBD@Z 10021888     node:node.exe
 0003:0000088c       __imp_?VisitHandlesForPartialDependence@Isolate@v8@@QAEXPAVPersistentHandleVisitor@2@@Z 1002188c     node:node.exe
 0003:00000890       __imp_?VisitHandlesWithClassIds@Isolate@v8@@QAEXPAVPersistentHandleVisitor@2@@Z 10021890     node:node.exe
 0003:00000894       __imp_?VisitExternalResources@Isolate@v8@@QAEXPAVExternalResourceVisitor@2@@Z 10021894     node:node.exe
 0003:00000898       __imp_?RemoveMemoryAllocationCallback@Isolate@v8@@QAEXP6AXW4ObjectSpace@2@W4AllocationAction@2@H@Z@Z 10021898     node:node.exe
 0003:0000089c       __imp_?AddMemoryAllocationCallback@Isolate@v8@@QAEXP6AXW4ObjectSpace@2@W4AllocationAction@2@H@Z01@Z 1002189c     node:node.exe
 0003:000008a0       __imp_?SetCaptureStackTraceForUncaughtExceptions@Isolate@v8@@QAEX_NHW4StackTraceOptions@StackTrace@2@@Z 100218a0     node:node.exe
 0003:000008a4       __imp_?SetFailedAccessCheckCallbackFunction@Isolate@v8@@QAEXP6AXV?$Local@VObject@v8@@@2@W4AccessType@2@V?$Local@VValue@v8@@@2@@Z@Z 100218a4     node:node.exe
 0003:000008a8       __imp_?RemoveMessageListeners@Isolate@v8@@QAEXP6AXV?$Local@VMessage@v8@@@2@V?$Local@VValue@v8@@@2@@Z@Z 100218a8     node:node.exe
 0003:000008ac       __imp_?AddMessageListener@Isolate@v8@@QAE_NP6AXV?$Local@VMessage@v8@@@2@V?$Local@VValue@v8@@@2@@Z1@Z 100218ac     node:node.exe
 0003:000008b0       __imp_?IsDead@Isolate@v8@@QAE_NXZ 100218b0     node:node.exe
 0003:000008b4       __imp_?SetAllowCodeGenerationFromStringsCallback@Isolate@v8@@QAEXP6A_NV?$Local@VContext@v8@@@2@@Z@Z 100218b4     node:node.exe
 0003:000008b8       __imp_?SetFatalErrorHandler@Isolate@v8@@QAEXP6AXPBD0@Z@Z 100218b8     node:node.exe
 0003:000008bc       __imp_?CancelTerminateExecution@Isolate@v8@@QAEXXZ 100218bc     node:node.exe
 0003:000008c0       __imp_?IsExecutionTerminating@Isolate@v8@@QAE_NXZ 100218c0     node:node.exe
 0003:000008c4       __imp_?TerminateExecution@Isolate@v8@@QAEXXZ 100218c4     node:node.exe
 0003:000008c8       __imp_?RemoveGCEpilogueCallback@Isolate@v8@@QAEXP6AXPAV12@W4GCType@2@W4GCCallbackFlags@2@@Z@Z 100218c8     node:node.exe
 0003:000008cc       __imp_?RemoveGCPrologueCallback@Isolate@v8@@QAEXP6AXPAV12@W4GCType@2@W4GCCallbackFlags@2@@Z@Z 100218cc     node:node.exe
 0003:000008d0       __imp_?GetCurrentContext@Isolate@v8@@QAE?AV?$Local@VContext@v8@@@2@XZ 100218d0     node:node.exe
 0003:000008d4       __imp_?Exit@Isolate@v8@@QAEXXZ 100218d4     node:node.exe
 0003:000008d8       __imp_?Enter@Isolate@v8@@QAEXXZ 100218d8     node:node.exe
 0003:000008dc       __imp_?GetCurrent@Isolate@v8@@SAPAV12@XZ 100218dc     node:node.exe
 0003:000008e0       __imp_?ResetToBookmark@ExternalSourceStream@ScriptCompiler@v8@@UAEXXZ 100218e0     node:node.exe
 0003:000008e4       __imp_?SetBookmark@ExternalSourceStream@ScriptCompiler@v8@@UAE_NXZ 100218e4     node:node.exe
 0003:000008e8       __imp_?CreateHandle@HandleScope@v8@@KAPAPAVObject@internal@2@PAVIsolate@42@PAV342@@Z 100218e8     node:node.exe
 0003:000008ec       __imp_?CreateHandle@HandleScope@v8@@CAPAPAVObject@internal@2@PAVHeapObject@42@PAV342@@Z 100218ec     node:node.exe
 0003:000008f0       __imp_??1HandleScope@v8@@QAE@XZ 100218f0     node:node.exe
 0003:000008f4       __imp_??0HandleScope@v8@@QAE@PAVIsolate@1@@Z 100218f4     node:node.exe
 0003:000008f8       __imp_?Set@Template@v8@@QAEXV?$Local@VName@v8@@@2@V?$Local@VData@v8@@@2@W4PropertyAttribute@2@@Z 100218f8     node:node.exe
 0003:000008fc       __imp_?Initialize@Locker@v8@@AAEXPAVIsolate@2@@Z 100218fc     node:node.exe
 0003:00000900       __imp_?Length@Array@v8@@QBEIXZ 10021900     node:node.exe
 0003:00000904       __imp_?GetId@UnboundScript@v8@@QAEHXZ 10021904     node:node.exe
 0003:00000908       __imp_?Initialize@Unlocker@v8@@AAEXPAVIsolate@2@@Z 10021908     node:node.exe
 0003:0000090c       __imp_?InstanceTemplate@FunctionTemplate@v8@@QAE?AV?$Local@VObjectTemplate@v8@@@2@XZ 1002190c     node:node.exe
 0003:00000910       __imp_?GetFunction@FunctionTemplate@v8@@QAE?AV?$Local@VFunction@v8@@@2@XZ 10021910     node:node.exe
 0003:00000914       __imp_?GetFunction@FunctionTemplate@v8@@QAE?AV?$MaybeLocal@VFunction@v8@@@2@V?$Local@VContext@v8@@@2@@Z 10021914     node:node.exe
 0003:00000918       __imp_?New@FunctionTemplate@v8@@SA?AV?$Local@VFunctionTemplate@v8@@@2@PAVIsolate@2@P6AXABV?$FunctionCallbackInfo@VValue@v8@@@2@@ZV?$Local@VValue@v8@@@2@V?$Local@VSignature@v8@@@2@H@Z 10021918     node:node.exe
 0003:0000091c       __imp_?ToLocalEmpty@V8@v8@@CAXXZ 1002191c     node:node.exe
 0003:00000920       __imp_?ClearWeak@V8@v8@@CAPAXPAPAVObject@internal@2@@Z 10021920     node:node.exe
 0003:00000924       __imp_?MakeWeak@V8@v8@@CAXPAPAVObject@internal@2@PAXP6AXABV?$WeakCallbackData@VValue@v8@@X@2@@Z@Z 10021924     node:node.exe
 0003:00000928       __imp_?DisposeGlobal@V8@v8@@CAXPAPAVObject@internal@2@@Z 10021928     node:node.exe
 0003:0000092c       __imp_?GlobalizeReference@V8@v8@@CAPAPAVObject@internal@2@PAVIsolate@42@PAPAV342@@Z 1002192c     node:node.exe
 0003:00000930       __imp_?Int32Value@Value@v8@@QBEHXZ 10021930     node:node.exe
 0003:00000934       __imp_?ToInt32@Value@v8@@QBE?AV?$MaybeLocal@VInt32@v8@@@2@V?$Local@VContext@v8@@@2@@Z 10021934     node:node.exe
 0003:00000938       __imp_?ToUint32@Value@v8@@QBE?AV?$MaybeLocal@VUint32@v8@@@2@V?$Local@VContext@v8@@@2@@Z 10021938     node:node.exe
 0003:0000093c       __imp_?ToInteger@Value@v8@@QBE?AV?$MaybeLocal@VInteger@v8@@@2@V?$Local@VContext@v8@@@2@@Z 1002193c     node:node.exe
 0003:00000940       __imp_?ToObject@Value@v8@@QBE?AV?$MaybeLocal@VObject@v8@@@2@V?$Local@VContext@v8@@@2@@Z 10021940     node:node.exe
 0003:00000944       __imp_?ToDetailString@Value@v8@@QBE?AV?$MaybeLocal@VString@v8@@@2@V?$Local@VContext@v8@@@2@@Z 10021944     node:node.exe
 0003:00000948       __imp_?ToString@Value@v8@@QBE?AV?$MaybeLocal@VString@v8@@@2@V?$Local@VContext@v8@@@2@@Z 10021948     node:node.exe
 0003:0000094c       __imp_?ToNumber@Value@v8@@QBE?AV?$MaybeLocal@VNumber@v8@@@2@V?$Local@VContext@v8@@@2@@Z 1002194c     node:node.exe
 0003:00000950       __imp_?ToBoolean@Value@v8@@QBE?AV?$MaybeLocal@VBoolean@v8@@@2@V?$Local@VContext@v8@@@2@@Z 10021950     node:node.exe
 0003:00000954       __imp_?Escape@EscapableHandleScope@v8@@AAEPAPAVObject@internal@2@PAPAV342@@Z 10021954     node:node.exe
 0003:00000958       __imp_??0EscapableHandleScope@v8@@QAE@PAVIsolate@1@@Z 10021958     node:node.exe
 0003:0000095c       __imp_?GetUnboundScript@Script@v8@@QAE?AV?$Local@VUnboundScript@v8@@@2@XZ 1002195c     node:node.exe
 0003:00000960       __imp_?NewFromUtf8@String@v8@@SA?AV?$MaybeLocal@VString@v8@@@2@PAVIsolate@2@PBDW4NewStringType@2@H@Z 10021960     node:node.exe
 0003:00000964       __imp_?SlowGetAlignedPointerFromInternalField@Object@v8@@AAEPAXH@Z 10021964     node:node.exe
 0003:00000968       __imp_?SlowGetInternalField@Object@v8@@AAE?AV?$Local@VValue@v8@@@2@H@Z 10021968     node:node.exe
 0003:0000096c       __imp_?SetAlignedPointerInInternalField@Object@v8@@QAEXHPAX@Z 1002196c     node:node.exe
 0003:00000970       __imp_?SetInternalField@Object@v8@@QAEXHV?$Local@VValue@v8@@@2@@Z 10021970     node:node.exe
 0003:00000974       __imp_?InternalFieldCount@Object@v8@@QAEHXZ 10021974     node:node.exe
 0003:00000978       __imp_?Get@Object@v8@@QAE?AV?$Local@VValue@v8@@@2@I@Z 10021978     node:node.exe
 0003:0000097c       __imp_?Set@Object@v8@@QAE?AV?$Maybe@_N@2@V?$Local@VContext@v8@@@2@V?$Local@VValue@v8@@@2@1@Z 1002197c     node:node.exe
 0003:00000980       __imp_?SetName@Function@v8@@QAEXV?$Local@VString@v8@@@2@@Z 10021980     node:node.exe
 0003:00000984       __imp_?NewInstance@Function@v8@@QBE?AV?$MaybeLocal@VObject@v8@@@2@V?$Local@VContext@v8@@@2@HQAV?$Local@VValue@v8@@@2@@Z 10021984     node:node.exe
 0003:00000988       __imp_?SetInternalFieldCount@ObjectTemplate@v8@@QAEXH@Z 10021988     node:node.exe
 0003:0000098c       __imp_?SetHandler@ObjectTemplate@v8@@QAEXABUIndexedPropertyHandlerConfiguration@2@@Z 1002198c     node:node.exe
 0003:00000990       __imp_?NewInstance@ObjectTemplate@v8@@QAE?AV?$MaybeLocal@VObject@v8@@@2@V?$Local@VContext@v8@@@2@@Z 10021990     node:node.exe
 0003:00000994       __imp_?New@ObjectTemplate@v8@@SA?AV?$Local@VObjectTemplate@v8@@@2@PAVIsolate@2@V?$Local@VFunctionTemplate@v8@@@2@@Z 10021994     node:node.exe
 0003:00000998       __imp__node_module_register 10021998     node:node.exe
 0003:0000099c       __imp_?Data@Buffer@node@@YAPADV?$Local@VObject@v8@@@v8@@@Z 1002199c     node:node.exe
 0003:000009a0       __imp_?Length@Buffer@node@@YAIV?$Local@VObject@v8@@@v8@@@Z 100219a0     node:node.exe
 0003:000009a4       \177node_NULL_THUNK_DATA_DLA 100219a4     node:node.exe
 0003:000009a8       __hmod__node_exe           100219a8     node:node.exe
 0003:00000ccc       ___scrt_current_native_startup_state 10021ccc     LIBCMT:utility.obj
 0003:00000cd0       ___scrt_native_startup_lock 10021cd0     LIBCMT:utility.obj
 0003:00000cf0       ?__type_info_root_node@@3U__type_info_node@@A 10021cf0     LIBCMT:tncleanup.obj
 0003:00000cf8       ?_OptionsStorage@?1??__local_stdio_printf_options@@9@4_KA 10021cf8     LIBCMT:default_local_stdio_options.obj
 0003:00000d00       ?_OptionsStorage@?1??__local_stdio_scanf_options@@9@4_KA 10021d00     LIBCMT:default_local_stdio_options.obj
 0003:00000d08       ___scrt_debugger_hook_flag 10021d08     LIBCMT:utility_desktop.obj
 0003:00000d0c       ___isa_available           10021d0c     LIBCMT:_cpu_disp_.obj
 0003:00000d10       ___favor                   10021d10     LIBCMT:_cpu_disp_.obj
 0003:00000d14       ___pPurecall               10021d14     libvcruntime:purevirt_data.obj
 0003:00000d90       ?pArgList@UnDecorator@@0PAVReplicator@@A 10021d90     libvcruntime:undname.obj
 0003:00000d94       ?pZNameList@UnDecorator@@0PAVReplicator@@A 10021d94     libvcruntime:undname.obj
 0003:00000d98       ?pTemplateArgList@UnDecorator@@0PAVReplicator@@A 10021d98     libvcruntime:undname.obj
 0003:00000d9c       ?gName@UnDecorator@@0PBDB  10021d9c     libvcruntime:undname.obj
 0003:00000da0       ?name@UnDecorator@@0PBDB   10021da0     libvcruntime:undname.obj
 0003:00000da4       ?outputString@UnDecorator@@0PADA 10021da4     libvcruntime:undname.obj
 0003:00000da8       ?maxStringLength@UnDecorator@@0HA 10021da8     libvcruntime:undname.obj
 0003:00000dac       ?disableFlags@UnDecorator@@0KA 10021dac     libvcruntime:undname.obj
 0003:00000db0       ?fExplicitTemplateParams@UnDecorator@@0_NA 10021db0     libvcruntime:undname.obj
 0003:00000db1       ?fGetTemplateArgumentList@UnDecorator@@0_NA 10021db1     libvcruntime:undname.obj
 0003:00000db4       ?m_pGetParameter@UnDecorator@@0P6APADJ@ZA 10021db4     libvcruntime:undname.obj
 0003:00000ddc       __environ_table            10021ddc     libucrt:environment_initialization.obj
 0003:00000de0       __wenviron_table           10021de0     libucrt:environment_initialization.obj
 0003:00000de4       ___dcrt_initial_wide_environment 10021de4     libucrt:environment_initialization.obj
 0003:00000de8       ___dcrt_initial_narrow_environment 10021de8     libucrt:environment_initialization.obj
 0003:00000dec       ___acrt_atexit_table       10021dec     libucrt:onexit.obj
 0003:00000df8       ___acrt_at_quick_exit_table 10021df8     libucrt:onexit.obj
 0003:00000e10       __nstream                  10021e10     libucrt:_file.obj
 0003:00000e14       ___piob                    10021e14     libucrt:_file.obj
 0003:00000e18       __cflush                   10021e18     libucrt:_file.obj
 0003:00000e2c       ___acrt_locale_changed_data 10021e2c     libucrt:wsetlocale.obj
 0003:00000e30       ___acrt_current_locale_data 10021e30     libucrt:nlsdata.obj
 0003:0000104c       ___mblocalename            1002204c     libucrt:mbctype.obj
 0003:00001050       ___mbcodepage              10022050     libucrt:mbctype.obj
 0003:00001054       ___ismbcodepage            10022054     libucrt:mbctype.obj
 0003:00001058       ___mbulinfo                10022058     libucrt:mbctype.obj
 0003:0000106c       ___acrt_heap               1002206c     libucrt:heap_handle.obj
 0003:00001070       ___pioinfo                 10022070     libucrt:ioinit.obj
 0003:00001270       __nhandle                  10022270     libucrt:ioinit.obj
 0003:00001274       ___argv                    10022274     libucrt:argv_data.obj
 0003:00001278       ___wargv                   10022278     libucrt:argv_data.obj
 0003:0000127c       __acmdln                   1002227c     libucrt:argv_data.obj
 0003:00001280       __wcmdln                   10022280     libucrt:argv_data.obj
 0003:00001288       ___acrt_stdout_buffer      10022288     libucrt:_sftbuf.obj
 0003:0000128c       ___acrt_stderr_buffer      1002228c     libucrt:_sftbuf.obj
 0003:00001298       ___acrt_lconv_static_null  10022298     libucrt:localeconv.obj
 0003:0000129c       ___acrt_lconv_static_W_null 1002229c     libucrt:localeconv.obj
 0003:000012a0       ___fastflag                100222a0     libucrt:fp_flags.obj
 0003:000012a8       ?DloadKernel32@@3PAUHINSTANCE__@@A 100222a8     DelayImp:delayhlp.obj
 0003:000012ac       ?DloadAcquireSRWLockExclusive@@3P6GXPAK@ZA 100222ac     DelayImp:delayhlp.obj
 0003:000012b0       ?DloadReleaseSRWLockExclusive@@3P6GXPAK@ZA 100222b0     DelayImp:delayhlp.obj
 0003:000012b4       ?DloadSrwLock@@3KA         100222b4     DelayImp:delayhlp.obj
 0003:000012b8       ?DloadSectionLockCount@@3KA 100222b8     DelayImp:delayhlp.obj
 0003:000012bc       ?DloadSectionOldProtection@@3KA 100222bc     DelayImp:delayhlp.obj
 0003:000012c0       ?DloadSectionCommitPermanent@@3KA 100222c0     DelayImp:delayhlp.obj
 0003:000012c4       ___pfnDliFailureHook2      100222c4     DelayImp:delayhk1.obj
 0003:000012c8       ___scrt_ucrt_dll_is_in_use 100222c8     <common>
 0003:000012cc       ___dyn_tls_init_callback   100222cc     <common>
 0003:000012d0       __pDestructExceptionObject 100222d0     <common>
 0003:000012d4       __pmatherr                 100222d4     <common>
 0003:000012d8       ___use_sse2_mathfcns       100222d8     <common>

 entry point at        0001:00002621

 Static symbols

 0000:fffda000       .debug$S                   10000000     kernel32:KERNEL32.dll
 0000:fffda000       .debug$S                   10000000     kernel32:KERNEL32.dll
 0000:fffda000       .debug$S                   10000000     kernel32:KERNEL32.dll
 0000:fffda000       .debug$S                   10000000     kernel32:KERNEL32.dll
 0000:fffda000       .debug$S                   10000000     kernel32:KERNEL32.dll
 0000:fffda000       .debug$S                   10000000     kernel32:KERNEL32.dll
 0000:fffda000       .debug$S                   10000000     bufferutil.exp
 0000:fffda000       .debug$S                   10000000     kernel32:KERNEL32.dll
 0000:fffda000       .debug$S                   10000000     kernel32:KERNEL32.dll
 0000:fffda000       .debug$S                   10000000     kernel32:KERNEL32.dll
 0000:fffda000       .debug$S                   10000000     kernel32:KERNEL32.dll
 0000:fffda000       .debug$S                   10000000     kernel32:KERNEL32.dll
 0000:fffda000       .debug$S                   10000000     kernel32:KERNEL32.dll
 0000:fffda000       .debug$S                   10000000     kernel32:KERNEL32.dll
 0000:fffda000       .debug$S                   10000000     kernel32:KERNEL32.dll
 0000:fffda000       .debug$S                   10000000     kernel32:KERNEL32.dll
 0000:fffda000       .debug$S                   10000000     kernel32:KERNEL32.dll
 0000:fffda000       .debug$S                   10000000     kernel32:KERNEL32.dll
 0000:fffda000       .debug$S                   10000000     kernel32:KERNEL32.dll
 0000:fffda000       .debug$S                   10000000     kernel32:KERNEL32.dll
 0000:fffda000       .debug$S                   10000000     kernel32:KERNEL32.dll
 0000:fffda000       .debug$S                   10000000     kernel32:KERNEL32.dll
 0000:fffda000       .debug$S                   10000000     kernel32:KERNEL32.dll
 0000:fffda000       .debug$S                   10000000     kernel32:KERNEL32.dll
 0000:fffda000       .debug$S                   10000000     kernel32:KERNEL32.dll
 0000:fffda000       .debug$S                   10000000     kernel32:KERNEL32.dll
 0000:fffda000       .debug$S                   10000000     kernel32:KERNEL32.dll
 0000:fffda000       .debug$S                   10000000     kernel32:KERNEL32.dll
 0000:fffda000       .debug$S                   10000000     kernel32:KERNEL32.dll
 0000:fffda000       .debug$S                   10000000     node:node.exe
 0000:fffda000       .debug$S                   10000000     node:node.exe
 0000:fffda000       .debug$S                   10000000     node:node.exe
 0000:fffda000       .debug$S                   10000000     node:node.exe
 0000:fffda000       .debug$S                   10000000     node:node.exe
 0000:fffda000       .debug$S                   10000000     node:node.exe
 0000:fffda000       .debug$S                   10000000     node:node.exe
 0000:fffda000       .debug$S                   10000000     node:node.exe
 0000:fffda000       .debug$S                   10000000     node:node.exe
 0000:fffda000       .debug$S                   10000000     node:node.exe
 0000:fffda000       .debug$S                   10000000     node:node.exe
 0000:fffda000       .debug$S                   10000000     node:node.exe
 0000:fffda000       .debug$S                   10000000     node:node.exe
 0000:fffda000       .debug$S                   10000000     node:node.exe
 0000:fffda000       .debug$S                   10000000     node:node.exe
 0000:fffda000       .debug$S                   10000000     node:node.exe
 0000:fffda000       .debug$S                   10000000     node:node.exe
 0000:fffda000       .debug$S                   10000000     node:node.exe
 0000:fffda000       .debug$S                   10000000     node:node.exe
 0000:fffda000       .debug$S                   10000000     node:node.exe
 0000:fffda000       .debug$S                   10000000     node:node.exe
 0000:fffda000       .debug$S                   10000000     node:node.exe
 0000:fffda000       .debug$S                   10000000     node:node.exe
 0000:fffda000       .debug$S                   10000000     node:node.exe
 0000:fffda000       .debug$S                   10000000     node:node.exe
 0000:fffda000       .debug$S                   10000000     node:node.exe
 0000:fffda000       .debug$S                   10000000     node:node.exe
 0000:fffda000       .debug$S                   10000000     node:node.exe
 0000:fffda000       .debug$S                   10000000     node:node.exe
 0000:fffda000       .debug$S                   10000000     node:node.exe
 0000:fffda000       .debug$S                   10000000     node:node.exe
 0000:fffda000       .debug$S                   10000000     node:node.exe
 0000:fffda000       .debug$S                   10000000     node:node.exe
 0000:fffda000       .debug$S                   10000000     node:node.exe
 0000:fffda000       .debug$S                   10000000     node:node.exe
 0000:fffda000       .debug$S                   10000000     node:node.exe
 0000:fffda000       .debug$S                   10000000     node:node.exe
 0000:fffda000       .debug$S                   10000000     node:node.exe
 0000:fffda000       .debug$S                   10000000     node:node.exe
 0000:fffda000       .debug$S                   10000000     node:node.exe
 0000:fffda000       .debug$S                   10000000     node:node.exe
 0000:fffda000       .debug$S                   10000000     node:node.exe
 0000:fffda000       .debug$S                   10000000     node:node.exe
 0000:fffda000       .debug$S                   10000000     node:node.exe
 0000:fffda000       .debug$S                   10000000     node:node.exe
 0000:fffda000       .debug$S                   10000000     node:node.exe
 0000:fffda000       .debug$S                   10000000     node:node.exe
 0000:fffda000       .debug$S                   10000000     node:node.exe
 0000:fffda000       .debug$S                   10000000     node:node.exe
 0000:fffda000       .debug$S                   10000000     node:node.exe
 0000:fffda000       .debug$S                   10000000     node:node.exe
 0000:fffda000       .debug$S                   10000000     node:node.exe
 0000:fffda000       .debug$S                   10000000     node:node.exe
 0000:fffda000       .debug$S                   10000000     node:node.exe
 0000:fffda000       .debug$S                   10000000     node:node.exe
 0000:fffda000       .debug$S                   10000000     node:node.exe
 0000:fffda000       .debug$S                   10000000     node:node.exe
 0000:fffda000       .debug$S                   10000000     node:node.exe
 0000:fffda000       .debug$S                   10000000     node:node.exe
 0000:fffda000       .debug$S                   10000000     node:node.exe
 0000:fffda000       .debug$S                   10000000     node:node.exe
 0000:fffda000       .debug$S                   10000000     node:node.exe
 0000:fffda000       .debug$S                   10000000     node:node.exe
 0000:fffda000       .debug$S                   10000000     node:node.exe
 0000:fffda000       .debug$S                   10000000     node:node.exe
 0000:fffda000       .debug$S                   10000000     node:node.exe
 0000:fffda000       .debug$S                   10000000     node:node.exe
 0000:fffda000       .debug$S                   10000000     node:node.exe
 0000:fffda000       .debug$S                   10000000     node:node.exe
 0000:fffda000       .debug$S                   10000000     node:node.exe
 0000:fffda000       .debug$S                   10000000     node:node.exe
 0000:fffda000       .debug$S                   10000000     node:node.exe
 0000:fffda000       .debug$S                   10000000     node:node.exe
 0000:fffda000       .debug$S                   10000000     advapi32:ADVAPI32.dll
 0000:fffda000       .debug$S                   10000000     kernel32:KERNEL32.dll
 0000:fffda000       .debug$S                   10000000     kernel32:KERNEL32.dll
 0000:fffda000       .debug$S                   10000000     kernel32:KERNEL32.dll
 0000:fffda000       .debug$S                   10000000     kernel32:KERNEL32.dll
 0000:fffda000       .debug$S                   10000000     kernel32:KERNEL32.dll
 0000:fffda000       .debug$S                   10000000     kernel32:KERNEL32.dll
 0000:fffda000       .debug$S                   10000000     kernel32:KERNEL32.dll
 0000:fffda000       .debug$S                   10000000     kernel32:KERNEL32.dll
 0000:fffda000       .debug$S                   10000000     kernel32:KERNEL32.dll
 0000:fffda000       .debug$S                   10000000     kernel32:KERNEL32.dll
 0000:fffda000       .debug$S                   10000000     kernel32:KERNEL32.dll
 0000:fffda000       .debug$S                   10000000     kernel32:KERNEL32.dll
 0000:fffda000       .debug$S                   10000000     kernel32:KERNEL32.dll
 0000:fffda000       .debug$S                   10000000     kernel32:KERNEL32.dll
 0000:fffda000       .debug$S                   10000000     kernel32:KERNEL32.dll
 0000:fffda000       .debug$S                   10000000     kernel32:KERNEL32.dll
 0000:fffda000       .debug$S                   10000000     kernel32:KERNEL32.dll
 0000:fffda000       .debug$S                   10000000     kernel32:KERNEL32.dll
 0000:fffda000       .debug$S                   10000000     kernel32:KERNEL32.dll
 0000:fffda000       .debug$S                   10000000     kernel32:KERNEL32.dll
 0000:fffda000       .debug$S                   10000000     kernel32:KERNEL32.dll
 0000:fffda000       .debug$S                   10000000     kernel32:KERNEL32.dll
 0000:fffda000       .debug$S                   10000000     kernel32:KERNEL32.dll
 0000:fffda000       .debug$S                   10000000     kernel32:KERNEL32.dll
 0000:fffda000       .debug$S                   10000000     kernel32:KERNEL32.dll
 0000:fffda000       .debug$S                   10000000     kernel32:KERNEL32.dll
 0000:fffda000       .debug$S                   10000000     kernel32:KERNEL32.dll
 0000:fffda000       .debug$S                   10000000     kernel32:KERNEL32.dll
 0000:fffda000       .debug$S                   10000000     kernel32:KERNEL32.dll
 0000:fffda000       .debug$S                   10000000     kernel32:KERNEL32.dll
 0000:fffda000       .debug$S                   10000000     kernel32:KERNEL32.dll
 0000:fffda000       .debug$S                   10000000     kernel32:KERNEL32.dll
 0000:fffda000       .debug$S                   10000000     kernel32:KERNEL32.dll
 0000:fffda000       .debug$S                   10000000     kernel32:KERNEL32.dll
 0000:fffda000       .debug$S                   10000000     kernel32:KERNEL32.dll
 0000:fffda000       .debug$S                   10000000     kernel32:KERNEL32.dll
 0000:fffda000       .debug$S                   10000000     kernel32:KERNEL32.dll
 0000:fffda000       .debug$S                   10000000     kernel32:KERNEL32.dll
 0000:fffda000       .debug$S                   10000000     kernel32:KERNEL32.dll
 0000:fffda000       .debug$S                   10000000     kernel32:KERNEL32.dll
 0000:fffda000       .debug$S                   10000000     kernel32:KERNEL32.dll
 0000:fffda000       .debug$S                   10000000     kernel32:KERNEL32.dll
 0000:fffda000       .debug$S                   10000000     kernel32:KERNEL32.dll
 0000:fffda000       .debug$S                   10000000     kernel32:KERNEL32.dll
 0000:fffda000       .debug$S                   10000000     kernel32:KERNEL32.dll
 0000:fffda000       .debug$S                   10000000     kernel32:KERNEL32.dll
 0000:fffda000       .debug$S                   10000000     kernel32:KERNEL32.dll
 0000:fffda000       .debug$S                   10000000     kernel32:KERNEL32.dll
 0000:fffda000       .debug$S                   10000000     kernel32:KERNEL32.dll
 0000:fffda000       .debug$S                   10000000     kernel32:KERNEL32.dll
 0000:fffda000       .debug$S                   10000000     kernel32:KERNEL32.dll
 0000:fffda000       .debug$S                   10000000     kernel32:KERNEL32.dll
 0000:fffda000       .debug$S                   10000000     kernel32:KERNEL32.dll
 0000:fffda000       .debug$S                   10000000     kernel32:KERNEL32.dll
 0000:fffda000       .debug$S                   10000000     kernel32:KERNEL32.dll
 0000:fffda000       .debug$S                   10000000     kernel32:KERNEL32.dll
 0001:000014e0       ?FunctionCallbackWrapper@imp@Nan@@YAXABV?$FunctionCallbackInfo@VValue@v8@@@v8@@@Z 100024e0 f   bufferutil.obj
 0001:00001f50       __register_bufferutil      10002f50 f   bufferutil.obj
 0001:00001f60       _load_exe_hook@8           10002f60 f   win_delay_load_hook.obj
 0001:0000230c       ?dllmain_crt_dispatch@@YGHQAUHINSTANCE__@@KQAX@Z 1000330c f   LIBCMT:dll_dllmain.obj
 0001:0000235f       ?dllmain_crt_process_attach@@YAHQAUHINSTANCE__@@QAX@Z 1000335f f   LIBCMT:dll_dllmain.obj
 0001:00002471       ?dllmain_crt_process_detach@@YAH_N@Z 10003471 f   LIBCMT:dll_dllmain.obj
 0001:000024ee       ?dllmain_dispatch@@YAHQAUHINSTANCE__@@KQAX@Z 100034ee f   LIBCMT:dll_dllmain.obj
 0001:000025f7       ?dllmain_raw@@YGHQAUHINSTANCE__@@KQAX@Z 100035f7 f   LIBCMT:dll_dllmain.obj
 0001:000028a7       ?find_pe_section@@YAPAU_IMAGE_SECTION_HEADER@@QAEI@Z 100038a7 f   LIBCMT:utility.obj
 0001:00002e30       $$000000                   10003e30     LIBCMT:_sehprolg4_.obj
 0001:00003095       __TlgDefineProvider_annotation__Tlg_Microsoft_CRTProviderProv 10004095 f   libvcruntime:telemetry.obj
 0001:00003096       ?__telemetry_getfilename@@YAXPAUHINSTANCE__@@PA_WK@Z 10004096 f   libvcruntime:telemetry.obj
 0001:00003230       _ValidateLocalCookies      10004230 f   libvcruntime:_chandler4_.obj
 0001:00003550       $$000000                   10004550     libvcruntime:memset.obj
 0001:000036c7       ?try_get_function@@YAPAXW4function_id@?A0x4d80baa5@@QBDQBW4module_id@2@2@Z 100046c7 f   libvcruntime:winapi_downlevel.obj
 0001:00003767       ?try_get_module@@YAPAUHINSTANCE__@@W4module_id@?A0x4d80baa5@@@Z 10004767 f   libvcruntime:winapi_downlevel.obj
 0001:00003a80       $$000000                   10004a80     libvcruntime:_exsup4_.obj
 0001:00003b10       __unwind_handler4          10004b10 f   libvcruntime:_exsup4_.obj
 0001:00003d70       $$000000                   10004d70     libvcruntime:_exsup_.obj
 0001:00003d90       __unwind_handler           10004d90 f   libvcruntime:_exsup_.obj
 0001:00003ea7       ??$common_assert_to_message_box@_W@@YAXQB_W0IQAX@Z 10004ea7 f   libucrt:assert.obj
 0001:00003f43       ??$common_assert_to_message_box_build_string@_W@@YAXQA_WIQB_W1IQAX@Z 10004f43 f   libucrt:assert.obj
 0001:00004488       ??$common_assert_to_stderr@_W@@YAXQB_W0I@Z 10005488 f   libucrt:assert.obj
 0001:00004533       ?common_assert_to_stderr_direct@@YAXQB_W0I@Z 10005533 f   libucrt:assert.obj
 0001:000045e4       ?get_assert_format@@YAPB_W_W@Z 100055e4 f   libucrt:assert.obj
 0001:000046a1       _memcpy_s                  100056a1 f   libucrt:assert.obj
 0001:000046a1       _memcpy_s                  100056a1 f   libucrt:cfout.obj
 0001:000046a1       _memcpy_s                  100056a1 f   libucrt:mbctype.obj
 0001:00004bff       ?atexit_exception_filter@@YAHK@Z 10005bff f   libucrt:exit.obj
 0001:00004c12       ?common_exit@@YAXHW4_crt_exit_cleanup_mode@@W4_crt_exit_return_mode@@@Z 10005c12 f   libucrt:exit.obj
 0001:00004d2b       ?exit_or_terminate_process@@YAXI@Z 10005d2b f   libucrt:exit.obj
 0001:00004d6c       ?is_managed_app@@YA_NXZ    10005d6c f   libucrt:exit.obj
 0001:00004db0       ?try_cor_exit_process@@YAXI@Z 10005db0 f   libucrt:exit.obj
 0001:00004e54       ??$common_initialize_environment_nolock@D@@YAHXZ 10005e54 f   libucrt:environment_initialization.obj
 0001:00004ead       ??$create_environment@D@@YAQAPADQAD@Z 10005ead f   libucrt:environment_initialization.obj
 0001:00004f7e       ??$free_environment@D@@YAXQAPAD@Z 10005f7e f   libucrt:environment_initialization.obj
 0001:00004f7e       ??$free_environment@_W@@YAXQAPA_W@Z 10005f7e f   libucrt:environment_initialization.obj
 0001:00004fed       ??$uninitialize_environment_internal@D@@YAXAAPAPAD@Z 10005fed f   libucrt:environment_initialization.obj
 0001:00005008       ??$uninitialize_environment_internal@_W@@YAXAAPAPA_W@Z 10006008 f   libucrt:environment_initialization.obj
 0001:00005170       ??R<lambda_275893d493268fdec8709772e3fcec0e>@@QBEHXZ 10006170 f   libucrt:onexit.obj
 0001:00005290       ??R<lambda_4e60a939b0d047cfe11ddc22648dfba9>@@QBEHXZ 10006290 f   libucrt:onexit.obj
 0001:00005465       _initialize_global_variables 10006465 f   libucrt:initialization.obj
 0001:00005477       _initialize_c              10006477 f   libucrt:initialization.obj
 0001:00005491       _uninitialize_environment  10006491 f   libucrt:initialization.obj
 0001:00005499       _initialize_environment    10006499 f   libucrt:initialization.obj
 0001:00005499       _report_memory_leaks       10006499 f   libucrt:initialization.obj
 0001:00005499       _uninitialize_global_state_isolation 10006499 f   libucrt:initialization.obj
 0001:00005499       _uninitialize_c            10006499 f   libucrt:initialization.obj
 0001:00005499       _initialize_global_state_isolation 10006499 f   libucrt:initialization.obj
 0001:0000549c       _initialize_pointers       1000649c f   libucrt:initialization.obj
 0001:000054d9       _uninitialize_vcruntime    100064d9 f   libucrt:initialization.obj
 0001:000054e2       _uninitialize_allocated_memory 100064e2 f   libucrt:initialization.obj
 0001:000057d9       ??$common_vsprintf@Vstandard_base@__crt_stdio_output@@_W@@YAH_KQA_WIQB_WQAU__crt_locale_pointers@@QAD@Z 100067d9 f   libucrt:output.obj
 0001:00005cc3       ??R<lambda_481dd5778c961fbcd3b60b650e9b9dc4>@@QBEHXZ 10006cc3 f   libucrt:output.obj
 0001:00005fc5       $LN54                      10006fc5     libucrt:output.obj
 0001:000060e5       $LN54                      100070e5     libucrt:output.obj
 0001:000069e9       $LN19                      100079e9     libucrt:output.obj
 0001:00007ce7       ??$common_xtox@K_W@@YAHKQA_WII_N@Z 10008ce7 f   libucrt:xtoa.obj
 0001:00007d75       ??$common_xtox_s@K_W@@YAHKQA_WII_N@Z 10008d75 f   libucrt:xtoa.obj
 0001:00007f21       ??$common_tcsncat_s@_W@@YAHQA_WIQB_WI@Z 10008f21 f   libucrt:wcsncat_s.obj
 0001:00008015       ??$common_show_message_box@_W@@YAHQB_W0I@Z 10009015 f   libucrt:crtmbox.obj
 0001:000080ee       ??$message_box_wait_thread@_W@@YGKQAX@Z 100090ee f   libucrt:crtmbox.obj
 0001:0000831d       _common_flush_all          1000931d f   libucrt:fflush.obj
 0001:000084c7       ??R<lambda_b721fa326cdb32351d23dfa67958c160>@@QBEHXZ 100094c7 f   libucrt:setvbuf.obj
 0001:00008561       ?set_buffer@@YAHV__crt_stdio_stream@@QADIH@Z 10009561 f   libucrt:setvbuf.obj
 0001:0000868c       ?get_global_action_nolock@@YAPAP6AXH@ZH@Z 1000968c f   libucrt:signal.obj
 0001:000086ce       ?siglookup@@YAPAU__crt_signal_action_t@@HQAU1@@Z 100096ce f   libucrt:signal.obj
 0001:00008959       ??$common_tox_l@$1?internal_isupper_l@@YA_NHQAU__crt_locale_pointers@@@Z$1?internal_map_lower@@YAHH0@Z@@YAHHKQAU__crt_locale_pointers@@@Z 10009959 f   libucrt:tolower_toupper.obj
 0001:00008aa3       ?internal_isupper_l@@YA_NHQAU__crt_locale_pointers@@@Z 10009aa3 f   libucrt:tolower_toupper.obj
 0001:00008cee       ?construct_ptd@@YAXQAU__acrt_ptd@@QAPAU__crt_locale_data@@@Z 10009cee f   libucrt:per_thread_data.obj
 0001:00008d67       ?destroy_fls@@YGXPAX@Z     10009d67 f   libucrt:per_thread_data.obj
 0001:00008d88       ?destroy_ptd@@YAXQAU__acrt_ptd@@@Z 10009d88 f   libucrt:per_thread_data.obj
 0001:00008e31       ?replace_current_thread_locale_nolock@@YAXQAU__acrt_ptd@@QAU__crt_locale_data@@@Z 10009e31 f   libucrt:per_thread_data.obj
 0001:0000914e       ?try_get_MessageBoxA@@YAP6GHPAUHWND__@@PBD1I@ZXZ 1000a14e f   libucrt:winapi_thunks.obj
 0001:00009168       ?try_get_MessageBoxW@@YAP6GHPAUHWND__@@PB_W1I@ZXZ 1000a168 f   libucrt:winapi_thunks.obj
 0001:00009182       ?try_get_function@@YAPAXW4function_id@?A0x9b56aee1@@QBDQBW4module_id@2@2@Z 1000a182 f   libucrt:winapi_thunks.obj
 0001:0000921e       ?try_get_module@@YAPAUHINSTANCE__@@W4module_id@?A0x9b56aee1@@@Z 1000a21e f   libucrt:winapi_thunks.obj
 0001:0000980f       ??R<lambda_ad1ced32f4ac17aa236e5ef05d6b3b7c>@@QBEXXZ 1000a80f f   libucrt:mbctype.obj
 0001:000098d3       ?CPtoLocaleName@@YAPB_WH@Z 1000a8d3 f   libucrt:mbctype.obj
 0001:00009911       ?getSystemCP@@YAHH@Z       1000a911 f   libucrt:mbctype.obj
 0001:00009984       ?setSBCS@@YAXPAU__crt_multibyte_data@@@Z 1000a984 f   libucrt:mbctype.obj
 0001:000099e9       ?setSBUpLow@@YAXPAU__crt_multibyte_data@@@Z 1000a9e9 f   libucrt:mbctype.obj
 0001:00009b7d       ?setmbcp_internal@@YAHH_N@Z 1000ab7d f   libucrt:mbctype.obj
 0001:00009f2f       ?find_end_of_double_null_terminated_sequence@@YAPB_WQB_W@Z 1000af2f f   libucrt:get_environment_from_os.obj
 0001:0000a07c       ?initialize_inherited_file_handles_nolock@@YAXXZ 1000b07c f   libucrt:ioinit.obj
 0001:0000a132       ?initialize_stdio_handles_nolock@@YAXXZ 1000b132 f   libucrt:ioinit.obj
 0001:0000a9fc       ?fp_format_a@@YAHQBNPADIQADIH_NIQAU__crt_locale_pointers@@@Z 1000b9fc f   libucrt:cvt.obj
 0001:0000acff       ?fp_format_e@@YAHQBNQADI1IH_NIQAU__crt_locale_pointers@@@Z 1000bcff f   libucrt:cvt.obj
 0001:0000ad9a       ?fp_format_e_internal@@YAHQADIH_NIQAU_strflt@@1QAU__crt_locale_pointers@@@Z 1000bd9a f   libucrt:cvt.obj
 0001:0000aee5       ?fp_format_f@@YAHQBNQADI1IHQAU__crt_locale_pointers@@@Z 1000bee5 f   libucrt:cvt.obj
 0001:0000af72       ?fp_format_f_internal@@YAHQADIHQAU_strflt@@_NQAU__crt_locale_pointers@@@Z 1000bf72 f   libucrt:cvt.obj
 0001:0000b049       ?fp_format_g@@YAHQBNQADI1IH_NIQAU__crt_locale_pointers@@@Z 1000c049 f   libucrt:cvt.obj
 0001:0000b111       ?fp_format_nan_or_infinity@@YAHW4__acrt_fp_class@@_NPADI1@Z 1000c111 f   libucrt:cvt.obj
 0001:0000b209       ?shift_bytes@@YAXQADI0H@Z  1000c209 f   libucrt:cvt.obj
 0001:0000b387       ?fputwc_binary_nolock@@YAG_WV__crt_stdio_stream@@@Z 1000c387 f   libucrt:fputwc.obj
 0001:0000b8a7       ?write_double_translated_ansi_nolock@@YA?AUwrite_result@?A0x4add88c5@@HQBDI@Z 1000c8a7 f   libucrt:write.obj
 0001:0000ba5a       ?write_double_translated_unicode_nolock@@YA?AUwrite_result@?A0x4add88c5@@QBDI@Z 1000ca5a f   libucrt:write.obj
 0001:0000bac7       ?write_requires_double_translation_nolock@@YA_NH@Z 1000cac7 f   libucrt:write.obj
 0001:0000bb3d       ?write_text_ansi_nolock@@YA?AUwrite_result@?A0x4add88c5@@HQBDI@Z 1000cb3d f   libucrt:write.obj
 0001:0000bc1c       ?write_text_utf16le_nolock@@YA?AUwrite_result@?A0x4add88c5@@HQBDI@Z 1000cc1c f   libucrt:write.obj
 0001:0000bd0a       ?write_text_utf8_nolock@@YA?AUwrite_result@?A0x4add88c5@@HQBDI@Z 1000cd0a f   libucrt:write.obj
 0001:0000c167       ?__acrt_LCMapStringA_stat@@YAHPAU__crt_locale_pointers@@PB_WKPBDHPADHHH@Z 1000d167 f   libucrt:lcmapstringa.obj
 0001:0000c8e7       ?free_crt_array_internal@@YAXQAPBXI@Z 1000d8e7 f   libucrt:inittime.obj
 0001:0000cb24       ?GetTableIndexFromLocaleName@@YAHPB_W@Z 1000db24 f   libucrt:lcidtoname_downlevel.obj
 0001:0000cc0c       ?initialize_multibyte@@YAHXZ 1000dc0c f   libucrt:multibyte_initializer.obj
 0001:0000e8ca       ??$common_flush_and_write_nolock@D@@YAHHV__crt_stdio_stream@@@Z 1000f8ca f   libucrt:_flsbuf.obj
 0001:0000e9db       ??$common_flush_and_write_nolock@_W@@YAHHV__crt_stdio_stream@@@Z 1000f9db f   libucrt:_flsbuf.obj
 0001:0000eaf0       ??$write_buffer_nolock@D@@YA_NDV__crt_stdio_stream@@@Z 1000faf0 f   libucrt:_flsbuf.obj
 0001:0000ebbc       ??$write_buffer_nolock@_W@@YA_N_WV__crt_stdio_stream@@@Z 1000fbbc f   libucrt:_flsbuf.obj
 0001:0000ed9c       ??$common_lseek@_J@@YA_JH_JH@Z 1000fd9c f   libucrt:lseek.obj
 0001:0000eea1       ??$common_lseek_nolock@_J@@YA_JH_JH@Z 1000fea1 f   libucrt:lseek.obj
 0001:0000f070       $$000000                   10010070     libucrt:log10.obj
 0001:0000f1c0       $$000000                   100101c0     libucrt:ceil_pentium4.obj
 0001:0000f570       $$000000                   10010570     libucrt:_strnicm.obj
 0001:0000f5d1       ___get_abstract_control_sse2 100105d1 f   libucrt:_fenvutils.obj
 0001:0000f64e       ___get_abstract_control_x87 1001064e f   libucrt:_fenvutils.obj
 0001:0000f6c1       ___get_machine_control     100106c1 f   libucrt:_fenvutils.obj
 0001:0000f732       ___get_machine_control_sse2 10010732 f   libucrt:_fenvutils.obj
 0001:0000f7b2       ___get_machine_status_sse2 100107b2 f   libucrt:_fenvutils.obj
 0001:0000f813       ___get_machine_status_x87  10010813 f   libucrt:_fenvutils.obj
 0001:0000fb50       $$000000                   10010b50     libucrt:log10_pentium4.obj
 0001:0000fde0       $$000000                   10010de0     libucrt:87tran.obj
 0001:0000ffe0       $$000000                   10010fe0     libucrt:87disp.obj
 0001:000101e0       $$000000                   100111e0     libucrt:common.obj
 0001:00010370       $$000000                   10011370     libucrt:genexcep.obj
 0001:000119a0       $$000000                   100129a0     LIBCMT:ulldvrm.obj
 0001:00011a40       $$000000                   10012a40     LIBCMT:_sehprolg4gs_.obj
 0001:00011aa0       $$000000                   10012aa0     LIBCMT:llmul.obj
 0001:00011ae0       $$000000                   10012ae0     LIBCMT:lldvrm.obj
 0001:00011bc0       $$000000                   10012bc0     LIBCMT:ullshr.obj
 0001:00011be0       $$000000                   10012be0     LIBCMT:chkstk.obj
 0001:00011c10       $$000000                   10012c10     LIBCMT:alloca16.obj
 0001:00011c40       $$000000                   10012c40     LIBCMT:llshl.obj
 0001:00011c60       $$000000                   10012c60     LIBCMT:_ftol2_.obj
 0001:00011d20       $$000000                   10012d20     libvcruntime:memcpy.obj
 0001:00011f84       TrailingUpVec              10012f84     libvcruntime:memcpy.obj
 0001:00012030       TrailingDownVec            10013030     libvcruntime:memcpy.obj
 0001:000122a0       $$000000                   100132a0     libvcruntime:strchr.obj
 0001:000123d0       $$000000                   100133d0     libvcruntime:memmove.obj
 0001:00012634       TrailingUpVec              10013634     libvcruntime:memmove.obj
 0001:000126e0       TrailingDownVec            100136e0     libvcruntime:memmove.obj
 0001:00012950       $$000000                   10013950     libvcruntime:strrchr.obj
 0002:00000170       _GS_ExceptionPointers      10014170     LIBCMT:gs_report.obj
 0002:0000020c       ?ExceptionTemplate@?1??_CxxThrowException@@9@8@4UEHExceptionRecord@@B 1001420c     libvcruntime:throw.obj
 0002:0000022c       ?module_names@?A0x4d80baa5@@3QBQB_WB 1001422c     libvcruntime:winapi_downlevel.obj
 0002:000002dc       ?candidate_modules@?1??try_get_EventRegister@@YAP6GKPBU_GUID@@P6GX0KE_K1PAU_EVENT_FILTER_DESCRIPTOR@@PAX@Z3PA_K@ZXZ@4QBW4module_id@?A0x4d80baa5@@B 100142dc     libvcruntime:winapi_downlevel.obj
 0002:000002f0       ?candidate_modules@?1??try_get_EventSetInformation@@YAP6GK_KW4_EVENT_INFO_CLASS@@PAXK@ZXZ@4QBW4module_id@?A0x4d80baa5@@B 100142f0     libvcruntime:winapi_downlevel.obj
 0002:00000308       ?candidate_modules@?1??try_get_EventUnregister@@YAP6GK_K@ZXZ@4QBW4module_id@?A0x4d80baa5@@B 10014308     libvcruntime:winapi_downlevel.obj
 0002:0000031c       ?candidate_modules@?1??try_get_EventWriteTransfer@@YAP6GK_KPBU_EVENT_DESCRIPTOR@@PBU_GUID@@2KPAU_EVENT_DATA_DESCRIPTOR@@@ZXZ@4QBW4module_id@?A0x4d80baa5@@B 1001431c     libvcruntime:winapi_downlevel.obj
 0002:00000334       ?candidate_modules@?1??try_get_FlsAlloc@@YAP6GKP6GXPAX@Z@ZXZ@4QBW4module_id@?A0x4d80baa5@@B 10014334     libvcruntime:winapi_downlevel.obj
 0002:00000348       ?candidate_modules@?1??try_get_FlsFree@@YAP6GHK@ZXZ@4QBW4module_id@?A0x4d80baa5@@B 10014348     libvcruntime:winapi_downlevel.obj
 0002:00000358       ?candidate_modules@?1??try_get_FlsGetValue@@YAP6GPAXK@ZXZ@4QBW4module_id@?A0x4d80baa5@@B 10014358     libvcruntime:winapi_downlevel.obj
 0002:0000036c       ?candidate_modules@?1??try_get_FlsSetValue@@YAP6GHKPAX@ZXZ@4QBW4module_id@?A0x4d80baa5@@B 1001436c     libvcruntime:winapi_downlevel.obj
 0002:00000380       ?candidate_modules@?1??try_get_InitializeCriticalSectionEx@@YAP6GHPAU_RTL_CRITICAL_SECTION@@KK@ZXZ@4QBW4module_id@?A0x4d80baa5@@B 10014380     libvcruntime:winapi_downlevel.obj
 0002:000003a8       ?tokenTable@@3QBQBDB       100143a8     libvcruntime:undname.obj
 0002:000003e0       ?nameTable@@3QBQBDB        100143e0     libvcruntime:undname.obj
 0002:00000524       ?rttiTable@@3QBQBDB        10014524     libvcruntime:undname.obj
 0002:00000e88       ___acrt_initializers       10014e88     libucrt:initialization.obj
 0002:00000f78       _errtable                  10014f78     libucrt:errno.obj
 0002:000015a8       _module_names              100155a8     libucrt:winapi_thunks.obj
 0002:00001a48       ?candidate_modules@?1??try_get_FlsAlloc@@YAP6GKP6GXPAX@Z@ZXZ@4QBW4module_id@?A0x9b56aee1@@B 10015a48     libucrt:winapi_thunks.obj
 0002:00001a50       ?candidate_modules@?1??try_get_FlsFree@@YAP6GHK@ZXZ@4QBW4module_id@?A0x9b56aee1@@B 10015a50     libucrt:winapi_thunks.obj
 0002:00001a58       ?candidate_modules@?1??try_get_FlsGetValue@@YAP6GPAXK@ZXZ@4QBW4module_id@?A0x9b56aee1@@B 10015a58     libucrt:winapi_thunks.obj
 0002:00001a60       ?candidate_modules@?1??try_get_FlsSetValue@@YAP6GHKPAX@ZXZ@4QBW4module_id@?A0x9b56aee1@@B 10015a60     libucrt:winapi_thunks.obj
 0002:00001a68       ?candidate_modules@?1??try_get_GetActiveWindow@@YAP6GPAUHWND__@@XZXZ@4QBW4module_id@?A0x9b56aee1@@B 10015a68     libucrt:winapi_thunks.obj
 0002:00001a80       ?candidate_modules@?1??try_get_GetCurrentPackageId@@YAP6GJPAIPAE@ZXZ@4QBW4module_id@?A0x9b56aee1@@B 10015a80     libucrt:winapi_thunks.obj
 0002:00001a9c       ?candidate_modules@?1??try_get_GetLastActivePopup@@YAP6GPAUHWND__@@PAU2@@ZXZ@4QBW4module_id@?A0x9b56aee1@@B 10015a9c     libucrt:winapi_thunks.obj
 0002:00001ab8       ?candidate_modules@?1??try_get_GetProcessWindowStation@@YAP6GPAUHWINSTA__@@XZXZ@4QBW4module_id@?A0x9b56aee1@@B 10015ab8     libucrt:winapi_thunks.obj
 0002:00001ad8       ?candidate_modules@?1??try_get_GetUserObjectInformationW@@YAP6GHPAXH0KPAK@ZXZ@4QBW4module_id@?A0x9b56aee1@@B 10015ad8     libucrt:winapi_thunks.obj
 0002:00001afc       ?candidate_modules@?1??try_get_InitializeCriticalSectionEx@@YAP6GHPAU_RTL_CRITICAL_SECTION@@KK@ZXZ@4QBW4module_id@?A0x9b56aee1@@B 10015afc     libucrt:winapi_thunks.obj
 0002:00001b04       ?candidate_modules@?1??try_get_LCMapStringEx@@YAP6GHPB_WK0HPA_WHPAU_nlsversioninfo@@PAXJ@ZXZ@4QBW4module_id@?A0x9b56aee1@@B 10015b04     libucrt:winapi_thunks.obj
 0002:00001b1c       ?candidate_modules@?1??try_get_LocaleNameToLCID@@YAP6GKPB_WK@ZXZ@4QBW4module_id@?A0x9b56aee1@@B 10015b1c     libucrt:winapi_thunks.obj
 0002:00001b38       ?candidate_modules@?1??try_get_MessageBoxA@@YAP6GHPAUHWND__@@PBD1I@ZXZ@4QBW4module_id@?A0x9b56aee1@@B 10015b38     libucrt:winapi_thunks.obj
 0002:00001b4c       ?candidate_modules@?1??try_get_MessageBoxW@@YAP6GHPAUHWND__@@PB_W1I@ZXZ@4QBW4module_id@?A0x9b56aee1@@B 10015b4c     libucrt:winapi_thunks.obj
 0002:00001b60       __mb_locale_names          10015b60     libucrt:mbctype.obj
 0002:000023f8       _LcidToLocaleNameTable     100163f8     libucrt:lcidtoname_downlevel.obj
 0002:00003518       _LocaleNameToIndexTable    10017518     libucrt:lcidtoname_downlevel.obj
 0002:00004e50       LOG_name                   10018e50     libucrt:log10.obj
 0002:00004e60       _One                       10018e60     libucrt:ceil_pentium4.obj
 0002:00004e70       _Bns                       10018e70     libucrt:ceil_pentium4.obj
 0002:00004e80       _Zero                      10018e80     libucrt:ceil_pentium4.obj
 0002:00004e90       _S                         10018e90     libucrt:ceil_pentium4.obj
 0002:00004ea0       _NegZero                   10018ea0     libucrt:ceil_pentium4.obj
 0002:00004ec0       emask                      10018ec0     libucrt:log10_pentium4.obj
 0002:00004ed0       CC                         10018ed0     libucrt:log10_pentium4.obj
 0002:00004ee0       Magic                      10018ee0     libucrt:log10_pentium4.obj
 0002:00004ef0       hi_mask                    10018ef0     libucrt:log10_pentium4.obj
 0002:00004f00       LOG10_2                    10018f00     libucrt:log10_pentium4.obj
 0002:00004f10       place_L                    10018f10     libucrt:log10_pentium4.obj
 0002:00004f30       One                        10018f30     libucrt:log10_pentium4.obj
 0002:00004f40       Zero                       10018f40     libucrt:log10_pentium4.obj
 0002:00004f50       Two52                      10018f50     libucrt:log10_pentium4.obj
 0002:00004f60       Infs                       10018f60     libucrt:log10_pentium4.obj
 0002:00004f70       NaN                        10018f70     libucrt:log10_pentium4.obj
 0002:00004f80       coeff                      10018f80     libucrt:log10_pentium4.obj
 0002:00004fde       _log2max                   10018fde     libucrt:87tran.obj
 0002:00004fe8       _smallarg                  10018fe8     libucrt:87tran.obj
 0002:00004ff2       _half                      10018ff2     libucrt:87tran.obj
 0002:0000503e       One                        1001903e     libucrt:87disp.obj
 0002:00005046       Three                      10019046     libucrt:87disp.obj
 0002:0000504e       XAMtoTagTab                1001904e     libucrt:87disp.obj
 0002:00005060       One                        10019060     libucrt:common.obj
 0002:00005074       DblMax                     10019074     libucrt:common.obj
 0002:0000507c       DblMin                     1001907c     libucrt:common.obj
 0002:00005084       IeeeAdjO                   10019084     libucrt:common.obj
 0002:0000508c       IeeeAdjU                   1001908c     libucrt:common.obj
 0002:00005094       _infinity                  10019094     libucrt:common.obj
 0002:0000509c       _zero                      1001909c     libucrt:common.obj
 0002:000050d8       _over                      100190d8     libucrt:fpctrl.obj
 0002:000050e4       _under                     100190e4     libucrt:fpctrl.obj
 0002:000059a8       ?_names@?1??_get_fname@@9@9 100199a8     libucrt:fpexcept.obj
 0002:000060a0       ?_TlgEvent@?3??__telemetry_main_invoke_trigger@@9@4U<unnamed-type-_TlgEvent>@?3??1@9@B 1001a0a0     libvcruntime:telemetry.obj
 0002:000060dc       ?_TlgEvent@?3??__telemetry_main_return_trigger@@9@4U<unnamed-type-_TlgEvent>@?3??1@9@B 1001a0dc     libvcruntime:telemetry.obj
 0002:00006117       ?_Tlg_Microsoft_CRTProviderProv_Meta@@3U<unnamed-type-_Tlg_Microsoft_CRTProviderProv_Meta>@@B 1001a117     libvcruntime:telemetry.obj
 0002:000065c0       __sehtable$?dllmain_crt_process_attach@@YAHQAUHINSTANCE__@@QAX@Z 1001a5c0     LIBCMT:dll_dllmain.obj
 0002:000065e0       __sehtable$?dllmain_crt_process_detach@@YAH_N@Z 1001a5e0     LIBCMT:dll_dllmain.obj
 0002:00006600       __sehtable$?dllmain_dispatch@@YAHQAUHINSTANCE__@@KQAX@Z 1001a600     LIBCMT:dll_dllmain.obj
 0002:000066b0       __sehtable$___scrt_is_nonwritable_in_current_image 1001a6b0     LIBCMT:utility.obj
 0002:000066d0       __sehtable$__query_new_handler 1001a6d0     libucrt:new_handler.obj
 0002:000066f0       __sehtable$?common_exit@@YAXHW4_crt_exit_cleanup_mode@@W4_crt_exit_return_mode@@@Z 1001a6f0     libucrt:exit.obj
 0002:00006718       __sehtable$??$?RV<lambda_800076c951b434888f4765a74a194fcc>@@AAV<lambda_4e60a939b0d047cfe11ddc22648dfba9>@@V<lambda_6dbb1268764f43b569ce7b67e331d33a>@@@?$__crt_seh_guarded_call@H@@QAEH$$QAV<lambda_800076c951b434888f4765a74a194fcc>@@AAV<lambda_4e60a939b0d047cfe11ddc22648dfba9>@@$$QAV<lambda_6dbb1268764f43b569ce7b67e331d33a>@@@Z 1001a718     libucrt:onexit.obj
 0002:00006738       __sehtable$??$?RV<lambda_995298e7d72eb4c2aab26c0585b3abe5>@@AAV<lambda_275893d493268fdec8709772e3fcec0e>@@V<lambda_293819299cbf9a7022e18b56a874bb5c>@@@?$__crt_seh_guarded_call@H@@QAEH$$QAV<lambda_995298e7d72eb4c2aab26c0585b3abe5>@@AAV<lambda_275893d493268fdec8709772e3fcec0e>@@$$QAV<lambda_293819299cbf9a7022e18b56a874bb5c>@@@Z 1001a738     libucrt:onexit.obj
 0002:00006758       __sehtable$_terminate      1001a758     libucrt:terminate.obj
 0002:00006778       __sehtable$??$?RV<lambda_ab9923ffb5d694ec0d78876dd103e44f>@@AAV<lambda_481dd5778c961fbcd3b60b650e9b9dc4>@@V<lambda_7923d86c9e3f319b415918ec4b39749c>@@@?$__crt_seh_guarded_call@H@@QAEH$$QAV<lambda_ab9923ffb5d694ec0d78876dd103e44f>@@AAV<lambda_481dd5778c961fbcd3b60b650e9b9dc4>@@$$QAV<lambda_7923d86c9e3f319b415918ec4b39749c>@@@Z 1001a778     libucrt:output.obj
 0002:00006798       __sehtable$_fflush         1001a798     libucrt:fflush.obj
 0002:000067b8       __sehtable$_common_flush_all 1001a7b8     libucrt:fflush.obj
 0002:000067e0       __sehtable$??$?RV<lambda_d92cfe8357b99225085016881b624cb0>@@AAV<lambda_b721fa326cdb32351d23dfa67958c160>@@V<lambda_42d75b0848218ec137fa420c8ba9fdf9>@@@?$__crt_seh_guarded_call@H@@QAEH$$QAV<lambda_d92cfe8357b99225085016881b624cb0>@@AAV<lambda_b721fa326cdb32351d23dfa67958c160>@@$$QAV<lambda_42d75b0848218ec137fa420c8ba9fdf9>@@@Z 1001a7e0     libucrt:setvbuf.obj
 0002:00006800       __sehtable$_raise          1001a800     libucrt:signal.obj
 0002:00006820       __sehtable$??$?RV<lambda_a048d3beccc847880fc8490e18b82769>@@AAV<lambda_ec61778202f4f5fc7e7711acc23c3bca>@@V<lambda_f7496a158712204296dd6628a163878e>@@@?$__crt_seh_guarded_call@P6AXH@Z@@QAEP6AXH@Z$$QAV<lambda_a048d3beccc847880fc8490e18b82769>@@AAV<lambda_ec61778202f4f5fc7e7711acc23c3bca>@@$$QAV<lambda_f7496a158712204296dd6628a163878e>@@@Z 1001a820     libucrt:signal.obj
 0002:00006840       __sehtable$??$?RV<lambda_9df27f884b057bc3edfc946cb5b7cf47>@@AAV<lambda_e69574bed617af4e071282c136b37893>@@V<lambda_cc0d902bcbbeb830f749456577db4721>@@@?$__crt_seh_guarded_call@X@@QAEX$$QAV<lambda_9df27f884b057bc3edfc946cb5b7cf47>@@AAV<lambda_e69574bed617af4e071282c136b37893>@@$$QAV<lambda_cc0d902bcbbeb830f749456577db4721>@@@Z 1001a840     libucrt:per_thread_data.obj
 0002:00006860       __sehtable$??$?RV<lambda_3518db117f0e7cdb002338c5d3c47b6c>@@AAV<lambda_b2ea41f6bbb362cd97d94c6828d90b61>@@V<lambda_abdedf541bb04549bc734292b4a045d4>@@@?$__crt_seh_guarded_call@X@@QAEX$$QAV<lambda_3518db117f0e7cdb002338c5d3c47b6c>@@AAV<lambda_b2ea41f6bbb362cd97d94c6828d90b61>@@$$QAV<lambda_abdedf541bb04549bc734292b4a045d4>@@@Z 1001a860     libucrt:per_thread_data.obj
 0002:00006880       __sehtable$??$?RV<lambda_51b6e8b1eb166f2a3faf91f424b38130>@@AAV<lambda_6250bd4b2a391816dd638c3bf72b0bcb>@@V<lambda_0b5a4a3e68152e1d9b943535f5f47bed>@@@?$__crt_seh_guarded_call@X@@QAEX$$QAV<lambda_51b6e8b1eb166f2a3faf91f424b38130>@@AAV<lambda_6250bd4b2a391816dd638c3bf72b0bcb>@@$$QAV<lambda_0b5a4a3e68152e1d9b943535f5f47bed>@@@Z 1001a880     libucrt:per_thread_data.obj
 0002:000068a0       __sehtable$??$?RV<lambda_5b71d36f03204c0beab531769a5b5694>@@AAV<lambda_be2b3da3f62db62e9dad5dc70221a656>@@V<lambda_8f9ce462984622f9bf76b59e2aaaf805>@@@?$__crt_seh_guarded_call@X@@QAEX$$QAV<lambda_5b71d36f03204c0beab531769a5b5694>@@AAV<lambda_be2b3da3f62db62e9dad5dc70221a656>@@$$QAV<lambda_8f9ce462984622f9bf76b59e2aaaf805>@@@Z 1001a8a0     libucrt:per_thread_data.obj
 0002:000068c0       __sehtable$___acrt_uninitialize_locale 1001a8c0     libucrt:wsetlocale.obj
 0002:000068e0       __sehtable$___acrt_update_thread_multibyte_data 1001a8e0     libucrt:mbctype.obj
 0002:00006900       __sehtable$??$?RV<lambda_978dc153c237d78434369da87b74ff60>@@AAV<lambda_ad1ced32f4ac17aa236e5ef05d6b3b7c>@@V<lambda_4a8533e2866a575feecb8298ce776b0d>@@@?$__crt_seh_guarded_call@X@@QAEX$$QAV<lambda_978dc153c237d78434369da87b74ff60>@@AAV<lambda_ad1ced32f4ac17aa236e5ef05d6b3b7c>@@$$QAV<lambda_4a8533e2866a575feecb8298ce776b0d>@@@Z 1001a900     libucrt:mbctype.obj
 0002:00006920       __sehtable$___acrt_initialize_lowio 1001a920     libucrt:ioinit.obj
 0002:00006940       __sehtable$__fcloseall     1001a940     libucrt:closeall.obj
 0002:00006960       __sehtable$??$?RV<lambda_61cee617f5178ae960314fd4d05640a0>@@AAV<lambda_6978c1fb23f02e42e1d9e99668cc68aa>@@V<lambda_9cd88cf8ad10232537feb2133f08c833>@@@?$__crt_seh_guarded_call@H@@QAEH$$QAV<lambda_61cee617f5178ae960314fd4d05640a0>@@AAV<lambda_6978c1fb23f02e42e1d9e99668cc68aa>@@$$QAV<lambda_9cd88cf8ad10232537feb2133f08c833>@@@Z 1001a960     libucrt:commit.obj
 0002:00006980       __sehtable$__write         1001a980     libucrt:write.obj
 0002:000069a0       __sehtable$___acrt_update_thread_locale_data 1001a9a0     libucrt:locale_refcounting.obj
 0002:000069c0       __sehtable$___acrt_lowio_ensure_fh_exists 1001a9c0     libucrt:osfinfo.obj
 0002:000069e0       __sehtable$_fclose         1001a9e0     libucrt:fclose.obj
 0002:00006a00       __sehtable$??$common_lseek@_J@@YA_JH_JH@Z 1001aa00     libucrt:lseek.obj
 0002:00006a20       __sehtable$??$?RV<lambda_123407a5e2ac06da108355a851863b7a>@@AAV<lambda_2fe9b910cf3cbf4a0ab98a02ba45b3ec>@@V<lambda_ae55bdf541ad94d75914d381c370e64d>@@@?$__crt_seh_guarded_call@H@@QAEH$$QAV<lambda_123407a5e2ac06da108355a851863b7a>@@AAV<lambda_2fe9b910cf3cbf4a0ab98a02ba45b3ec>@@$$QAV<lambda_ae55bdf541ad94d75914d381c370e64d>@@@Z 1001aa20     libucrt:close.obj
 0002:00006a40       __sehtable$__IsNonwritableInCurrentImage 1001aa40     LIBCMT:pesect.obj
 0002:000080e0       .edata                     1001c0e0     bufferutil.exp
 0002:00008108       rgpv                       1001c108     bufferutil.exp
 0002:00008614       rgszName                   1001c614     bufferutil.exp
 0002:00008b20       rgwOrd                     1001cb20     bufferutil.exp
 0002:00008da6       szName                     1001cda6     bufferutil.exp
 0002:00008db6       $N00001                    1001cdb6     bufferutil.exp
 0002:00008de1       $N00002                    1001cde1     bufferutil.exp
 0002:00008e05       $N00003                    1001ce05     bufferutil.exp
 0002:00008e2d       $N00004                    1001ce2d     bufferutil.exp
 0002:00008e50       $N00005                    1001ce50     bufferutil.exp
 0002:00008e79       $N00006                    1001ce79     bufferutil.exp
 0002:00008ea4       $N00007                    1001cea4     bufferutil.exp
 0002:00008ec9       $N00008                    1001cec9     bufferutil.exp
 0002:00008efc       $N00009                    1001cefc     bufferutil.exp
 0002:00008f30       $N00010                    1001cf30     bufferutil.exp
 0002:00008f60       $N00011                    1001cf60     bufferutil.exp
 0002:00008f8c       $N00012                    1001cf8c     bufferutil.exp
 0002:00008fb2       $N00013                    1001cfb2     bufferutil.exp
 0002:00008feb       $N00014                    1001cfeb     bufferutil.exp
 0002:0000901d       $N00015                    1001d01d     bufferutil.exp
 0002:00009049       $N00016                    1001d049     bufferutil.exp
 0002:00009079       $N00017                    1001d079     bufferutil.exp
 0002:00009093       $N00018                    1001d093     bufferutil.exp
 0002:000090b5       $N00019                    1001d0b5     bufferutil.exp
 0002:000090e1       $N00020                    1001d0e1     bufferutil.exp
 0002:00009107       $N00021                    1001d107     bufferutil.exp
 0002:00009129       $N00022                    1001d129     bufferutil.exp
 0002:0000914d       $N00023                    1001d14d     bufferutil.exp
 0002:00009171       $N00024                    1001d171     bufferutil.exp
 0002:00009194       $N00025                    1001d194     bufferutil.exp
 0002:000091ac       $N00026                    1001d1ac     bufferutil.exp
 0002:000091df       $N00027                    1001d1df     bufferutil.exp
 0002:0000920f       $N00028                    1001d20f     bufferutil.exp
 0002:00009235       $N00029                    1001d235     bufferutil.exp
 0002:00009267       $N00030                    1001d267     bufferutil.exp
 0002:00009293       $N00031                    1001d293     bufferutil.exp
 0002:000092c3       $N00032                    1001d2c3     bufferutil.exp
 0002:000092e9       $N00033                    1001d2e9     bufferutil.exp
 0002:00009305       $N00034                    1001d305     bufferutil.exp
 0002:00009332       $N00035                    1001d332     bufferutil.exp
 0002:0000935d       $N00036                    1001d35d     bufferutil.exp
 0002:0000938e       $N00037                    1001d38e     bufferutil.exp
 0002:000093af       $N00038                    1001d3af     bufferutil.exp
 0002:000093ce       $N00039                    1001d3ce     bufferutil.exp
 0002:000093f5       $N00040                    1001d3f5     bufferutil.exp
 0002:0000941a       $N00041                    1001d41a     bufferutil.exp
 0002:00009445       $N00042                    1001d445     bufferutil.exp
 0002:0000946e       $N00043                    1001d46e     bufferutil.exp
 0002:00009491       $N00044                    1001d491     bufferutil.exp
 0002:000094b2       $N00045                    1001d4b2     bufferutil.exp
 0002:000094db       $N00046                    1001d4db     bufferutil.exp
 0002:00009502       $N00047                    1001d502     bufferutil.exp
 0002:00009534       $N00048                    1001d534     bufferutil.exp
 0002:00009564       $N00049                    1001d564     bufferutil.exp
 0002:0000959c       $N00050                    1001d59c     bufferutil.exp
 0002:000095d2       $N00051                    1001d5d2     bufferutil.exp
 0002:000095f5       $N00052                    1001d5f5     bufferutil.exp
 0002:00009616       $N00053                    1001d616     bufferutil.exp
 0002:00009636       $N00054                    1001d636     bufferutil.exp
 0002:00009654       $N00055                    1001d654     bufferutil.exp
 0002:00009678       $N00056                    1001d678     bufferutil.exp
 0002:0000969a       $N00057                    1001d69a     bufferutil.exp
 0002:000096ba       $N00058                    1001d6ba     bufferutil.exp
 0002:000096d8       $N00059                    1001d6d8     bufferutil.exp
 0002:000096fd       $N00060                    1001d6fd     bufferutil.exp
 0002:00009720       $N00061                    1001d720     bufferutil.exp
 0002:00009744       $N00062                    1001d744     bufferutil.exp
 0002:00009766       $N00063                    1001d766     bufferutil.exp
 0002:00009797       $N00064                    1001d797     bufferutil.exp
 0002:000097d6       $N00065                    1001d7d6     bufferutil.exp
 0002:000097fe       $N00066                    1001d7fe     bufferutil.exp
 0002:00009824       $N00067                    1001d824     bufferutil.exp
 0002:0000984c       $N00068                    1001d84c     bufferutil.exp
 0002:00009872       $N00069                    1001d872     bufferutil.exp
 0002:00009896       $N00070                    1001d896     bufferutil.exp
 0002:000098b8       $N00071                    1001d8b8     bufferutil.exp
 0002:000098e4       $N00072                    1001d8e4     bufferutil.exp
 0002:0000990e       $N00073                    1001d90e     bufferutil.exp
 0002:0000993e       $N00074                    1001d93e     bufferutil.exp
 0002:0000996c       $N00075                    1001d96c     bufferutil.exp
 0002:0000999b       $N00076                    1001d99b     bufferutil.exp
 0002:000099c8       $N00077                    1001d9c8     bufferutil.exp
 0002:000099f2       $N00078                    1001d9f2     bufferutil.exp
 0002:00009a1a       $N00079                    1001da1a     bufferutil.exp
 0002:00009a40       $N00080                    1001da40     bufferutil.exp
 0002:00009a64       $N00081                    1001da64     bufferutil.exp
 0002:00009a85       $N00082                    1001da85     bufferutil.exp
 0002:00009aa4       $N00083                    1001daa4     bufferutil.exp
 0002:00009aca       $N00084                    1001daca     bufferutil.exp
 0002:00009aee       $N00085                    1001daee     bufferutil.exp
 0002:00009b13       $N00086                    1001db13     bufferutil.exp
 0002:00009b36       $N00087                    1001db36     bufferutil.exp
 0002:00009b59       $N00088                    1001db59     bufferutil.exp
 0002:00009b7a       $N00089                    1001db7a     bufferutil.exp
 0002:00009b9a       $N00090                    1001db9a     bufferutil.exp
 0002:00009bb8       $N00091                    1001dbb8     bufferutil.exp
 0002:00009bd7       $N00092                    1001dbd7     bufferutil.exp
 0002:00009bf4       $N00093                    1001dbf4     bufferutil.exp
 0002:00009c17       $N00094                    1001dc17     bufferutil.exp
 0002:00009c38       $N00095                    1001dc38     bufferutil.exp
 0002:00009c58       $N00096                    1001dc58     bufferutil.exp
 0002:00009c76       $N00097                    1001dc76     bufferutil.exp
 0002:00009c9f       $N00098                    1001dc9f     bufferutil.exp
 0002:00009cc6       $N00099                    1001dcc6     bufferutil.exp
 0002:00009ce8       $N00100                    1001dce8     bufferutil.exp
 0002:00009d08       $N00101                    1001dd08     bufferutil.exp
 0002:00009d30       $N00102                    1001dd30     bufferutil.exp
 0002:00009d56       $N00103                    1001dd56     bufferutil.exp
 0002:00009d78       $N00104                    1001dd78     bufferutil.exp
 0002:00009d98       $N00105                    1001dd98     bufferutil.exp
 0002:00009dc2       $N00106                    1001ddc2     bufferutil.exp
 0002:00009dea       $N00107                    1001ddea     bufferutil.exp
 0002:00009e1b       $N00108                    1001de1b     bufferutil.exp
 0002:00009e40       $N00109                    1001de40     bufferutil.exp
 0002:00009e63       $N00110                    1001de63     bufferutil.exp
 0002:00009e86       $N00111                    1001de86     bufferutil.exp
 0002:00009ea7       $N00112                    1001dea7     bufferutil.exp
 0002:00009ec9       $N00113                    1001dec9     bufferutil.exp
 0002:00009ee9       $N00114                    1001dee9     bufferutil.exp
 0002:00009f17       $N00115                    1001df17     bufferutil.exp
 0002:00009f43       $N00116                    1001df43     bufferutil.exp
 0002:00009f72       $N00117                    1001df72     bufferutil.exp
 0002:00009f9f       $N00118                    1001df9f     bufferutil.exp
 0002:00009fc1       $N00119                    1001dfc1     bufferutil.exp
 0002:00009fe1       $N00120                    1001dfe1     bufferutil.exp
 0002:0000a00b       $N00121                    1001e00b     bufferutil.exp
 0002:0000a033       $N00122                    1001e033     bufferutil.exp
 0002:0000a052       $N00123                    1001e052     bufferutil.exp
 0002:0000a06f       $N00124                    1001e06f     bufferutil.exp
 0002:0000a09c       $N00125                    1001e09c     bufferutil.exp
 0002:0000a0c7       $N00126                    1001e0c7     bufferutil.exp
 0002:0000a0ec       $N00127                    1001e0ec     bufferutil.exp
 0002:0000a10f       $N00128                    1001e10f     bufferutil.exp
 0002:0000a135       $N00129                    1001e135     bufferutil.exp
 0002:0000a159       $N00130                    1001e159     bufferutil.exp
 0002:0000a17f       $N00131                    1001e17f     bufferutil.exp
 0002:0000a1a3       $N00132                    1001e1a3     bufferutil.exp
 0002:0000a1ca       $N00133                    1001e1ca     bufferutil.exp
 0002:0000a1ef       $N00134                    1001e1ef     bufferutil.exp
 0002:0000a211       $N00135                    1001e211     bufferutil.exp
 0002:0000a231       $N00136                    1001e231     bufferutil.exp
 0002:0000a259       $N00137                    1001e259     bufferutil.exp
 0002:0000a27f       $N00138                    1001e27f     bufferutil.exp
 0002:0000a2a1       $N00139                    1001e2a1     bufferutil.exp
 0002:0000a2c1       $N00140                    1001e2c1     bufferutil.exp
 0002:0000a2e9       $N00141                    1001e2e9     bufferutil.exp
 0002:0000a30f       $N00142                    1001e30f     bufferutil.exp
 0002:0000a333       $N00143                    1001e333     bufferutil.exp
 0002:0000a355       $N00144                    1001e355     bufferutil.exp
 0002:0000a37b       $N00145                    1001e37b     bufferutil.exp
 0002:0000a39f       $N00146                    1001e39f     bufferutil.exp
 0002:0000a3c5       $N00147                    1001e3c5     bufferutil.exp
 0002:0000a3e9       $N00148                    1001e3e9     bufferutil.exp
 0002:0000a410       $N00149                    1001e410     bufferutil.exp
 0002:0000a435       $N00150                    1001e435     bufferutil.exp
 0002:0000a457       $N00151                    1001e457     bufferutil.exp
 0002:0000a477       $N00152                    1001e477     bufferutil.exp
 0002:0000a49e       $N00153                    1001e49e     bufferutil.exp
 0002:0000a4c3       $N00154                    1001e4c3     bufferutil.exp
 0002:0000a4e9       $N00155                    1001e4e9     bufferutil.exp
 0002:0000a50d       $N00156                    1001e50d     bufferutil.exp
 0002:0000a53a       $N00157                    1001e53a     bufferutil.exp
 0002:0000a565       $N00158                    1001e565     bufferutil.exp
 0002:0000a58e       $N00159                    1001e58e     bufferutil.exp
 0002:0000a5b5       $N00160                    1001e5b5     bufferutil.exp
 0002:0000a5d7       $N00161                    1001e5d7     bufferutil.exp
 0002:0000a5f5       $N00162                    1001e5f5     bufferutil.exp
 0002:0000a611       $N00163                    1001e611     bufferutil.exp
 0002:0000a632       $N00164                    1001e632     bufferutil.exp
 0002:0000a651       $N00165                    1001e651     bufferutil.exp
 0002:0000a672       $N00166                    1001e672     bufferutil.exp
 0002:0000a693       $N00167                    1001e693     bufferutil.exp
 0002:0000a6b0       $N00168                    1001e6b0     bufferutil.exp
 0002:0000a6cd       $N00169                    1001e6cd     bufferutil.exp
 0002:0000a6ef       $N00170                    1001e6ef     bufferutil.exp
 0002:0000a705       $N00171                    1001e705     bufferutil.exp
 0002:0000a736       $N00172                    1001e736     bufferutil.exp
 0002:0000a764       $N00173                    1001e764     bufferutil.exp
 0002:0000a788       $N00174                    1001e788     bufferutil.exp
 0002:0000a7b8       $N00175                    1001e7b8     bufferutil.exp
 0002:0000a7e2       $N00176                    1001e7e2     bufferutil.exp
 0002:0000a810       $N00177                    1001e810     bufferutil.exp
 0002:0000a834       $N00178                    1001e834     bufferutil.exp
 0002:0000a88c       $N00179                    1001e88c     bufferutil.exp
 0002:0000a8e5       $N00180                    1001e8e5     bufferutil.exp
 0002:0000a922       $N00181                    1001e922     bufferutil.exp
 0002:0000a94e       $N00182                    1001e94e     bufferutil.exp
 0002:0000a980       $N00183                    1001e980     bufferutil.exp
 0002:0000a9b4       $N00184                    1001e9b4     bufferutil.exp
 0002:0000a9da       $N00185                    1001e9da     bufferutil.exp
 0002:0000aa06       $N00186                    1001ea06     bufferutil.exp
 0002:0000aa36       $N00187                    1001ea36     bufferutil.exp
 0002:0000aa5e       $N00188                    1001ea5e     bufferutil.exp
 0002:0000aa8c       $N00189                    1001ea8c     bufferutil.exp
 0002:0000aab5       $N00190                    1001eab5     bufferutil.exp
 0002:0000aada       $N00191                    1001eada     bufferutil.exp
 0002:0000ab03       $N00192                    1001eb03     bufferutil.exp
 0002:0000ab30       $N00193                    1001eb30     bufferutil.exp
 0002:0000ab5d       $N00194                    1001eb5d     bufferutil.exp
 0002:0000ab86       $N00195                    1001eb86     bufferutil.exp
 0002:0000abb1       $N00196                    1001ebb1     bufferutil.exp
 0002:0000abd7       $N00197                    1001ebd7     bufferutil.exp
 0002:0000ac02       $N00198                    1001ec02     bufferutil.exp
 0002:0000ac2c       $N00199                    1001ec2c     bufferutil.exp
 0002:0000ac54       $N00200                    1001ec54     bufferutil.exp
 0002:0000ac78       $N00201                    1001ec78     bufferutil.exp
 0002:0000ac9d       $N00202                    1001ec9d     bufferutil.exp
 0002:0000acc4       $N00203                    1001ecc4     bufferutil.exp
 0002:0000acf1       $N00204                    1001ecf1     bufferutil.exp
 0002:0000ad18       $N00205                    1001ed18     bufferutil.exp
 0002:0000ad40       $N00206                    1001ed40     bufferutil.exp
 0002:0000ad67       $N00207                    1001ed67     bufferutil.exp
 0002:0000ad99       $N00208                    1001ed99     bufferutil.exp
 0002:0000adbd       $N00209                    1001edbd     bufferutil.exp
 0002:0000adef       $N00210                    1001edef     bufferutil.exp
 0002:0000ae16       $N00211                    1001ee16     bufferutil.exp
 0002:0000ae43       $N00212                    1001ee43     bufferutil.exp
 0002:0000ae6a       $N00213                    1001ee6a     bufferutil.exp
 0002:0000ae97       $N00214                    1001ee97     bufferutil.exp
 0002:0000aec2       $N00215                    1001eec2     bufferutil.exp
 0002:0000aeee       $N00216                    1001eeee     bufferutil.exp
 0002:0000af15       $N00217                    1001ef15     bufferutil.exp
 0002:0000af41       $N00218                    1001ef41     bufferutil.exp
 0002:0000af6c       $N00219                    1001ef6c     bufferutil.exp
 0002:0000af9e       $N00220                    1001ef9e     bufferutil.exp
 0002:0000afc6       $N00221                    1001efc6     bufferutil.exp
 0002:0000aff4       $N00222                    1001eff4     bufferutil.exp
 0002:0000b02a       $N00223                    1001f02a     bufferutil.exp
 0002:0000b068       $N00224                    1001f068     bufferutil.exp
 0002:0000b0a1       $N00225                    1001f0a1     bufferutil.exp
 0002:0000b0da       $N00226                    1001f0da     bufferutil.exp
 0002:0000b135       $N00227                    1001f135     bufferutil.exp
 0002:0000b154       $N00228                    1001f154     bufferutil.exp
 0002:0000b191       $N00229                    1001f191     bufferutil.exp
 0002:0000b1da       $N00230                    1001f1da     bufferutil.exp
 0002:0000b23b       $N00231                    1001f23b     bufferutil.exp
 0002:0000b254       $N00232                    1001f254     bufferutil.exp
 0002:0000b291       $N00233                    1001f291     bufferutil.exp
 0002:0000b2c0       $N00234                    1001f2c0     bufferutil.exp
 0002:0000b338       $N00235                    1001f338     bufferutil.exp
 0002:0000b360       $N00236                    1001f360     bufferutil.exp
 0002:0000b3a8       $N00237                    1001f3a8     bufferutil.exp
 0002:0000b3be       $N00238                    1001f3be     bufferutil.exp
 0002:0000b3f1       $N00239                    1001f3f1     bufferutil.exp
 0002:0000b40b       $N00240                    1001f40b     bufferutil.exp
 0002:0000b427       $N00241                    1001f427     bufferutil.exp
 0002:0000b446       $N00242                    1001f446     bufferutil.exp
 0002:0000b47b       $N00243                    1001f47b     bufferutil.exp
 0002:0000b4bb       $N00244                    1001f4bb     bufferutil.exp
 0002:0000b513       $N00245                    1001f513     bufferutil.exp
 0002:0000b532       $N00246                    1001f532     bufferutil.exp
 0002:0000b553       $N00247                    1001f553     bufferutil.exp
 0002:0000b577       $N00248                    1001f577     bufferutil.exp
 0002:0000b5c3       $N00249                    1001f5c3     bufferutil.exp
 0002:0000b60f       $N00250                    1001f60f     bufferutil.exp
 0002:0000b668       $N00251                    1001f668     bufferutil.exp
 0002:0000b6c3       $N00252                    1001f6c3     bufferutil.exp
 0002:0000b702       $N00253                    1001f702     bufferutil.exp
 0002:0000b75a       $N00254                    1001f75a     bufferutil.exp
 0002:0000b7b6       $N00255                    1001f7b6     bufferutil.exp
 0002:0000b7d6       $N00256                    1001f7d6     bufferutil.exp
 0002:0000b84d       $N00257                    1001f84d     bufferutil.exp
 0002:0000b87a       $N00258                    1001f87a     bufferutil.exp
 0002:0000b98e       $N00259                    1001f98e     bufferutil.exp
 0002:0000b9bc       $N00260                    1001f9bc     bufferutil.exp
 0002:0000b9f2       $N00261                    1001f9f2     bufferutil.exp
 0002:0000ba2c       $N00262                    1001fa2c     bufferutil.exp
 0002:0000ba5e       $N00263                    1001fa5e     bufferutil.exp
 0002:0000ba94       $N00264                    1001fa94     bufferutil.exp
 0002:0000bac8       $N00265                    1001fac8     bufferutil.exp
 0002:0000bafc       $N00266                    1001fafc     bufferutil.exp
 0002:0000bb30       $N00267                    1001fb30     bufferutil.exp
 0002:0000bb64       $N00268                    1001fb64     bufferutil.exp
 0002:0000bba6       $N00269                    1001fba6     bufferutil.exp
 0002:0000bbf6       $N00270                    1001fbf6     bufferutil.exp
 0002:0000bc4f       $N00271                    1001fc4f     bufferutil.exp
 0002:0000bca0       $N00272                    1001fca0     bufferutil.exp
 0002:0000bce4       $N00273                    1001fce4     bufferutil.exp
 0002:0000bd6a       $N00274                    1001fd6a     bufferutil.exp
 0002:0000bd8d       $N00275                    1001fd8d     bufferutil.exp
 0002:0000bdba       $N00276                    1001fdba     bufferutil.exp
 0002:0000bdea       $N00277                    1001fdea     bufferutil.exp
 0002:0000be1f       $N00278                    1001fe1f     bufferutil.exp
 0002:0000be46       $N00279                    1001fe46     bufferutil.exp
 0002:0000be6d       $N00280                    1001fe6d     bufferutil.exp
 0002:0000be98       $N00281                    1001fe98     bufferutil.exp
 0002:0000bec3       $N00282                    1001fec3     bufferutil.exp
 0002:0000bf00       $N00283                    1001ff00     bufferutil.exp
 0002:0000bf29       $N00284                    1001ff29     bufferutil.exp
 0002:0000bf56       $N00285                    1001ff56     bufferutil.exp
 0002:0000bf85       $N00286                    1001ff85     bufferutil.exp
 0002:0000bfa0       $N00287                    1001ffa0     bufferutil.exp
 0002:0000bfbf       $N00288                    1001ffbf     bufferutil.exp
 0002:0000bfe2       $N00289                    1001ffe2     bufferutil.exp
 0002:0000c005       $N00290                    10020005     bufferutil.exp
 0002:0000c026       $N00291                    10020026     bufferutil.exp
 0002:0000c05b       $N00292                    1002005b     bufferutil.exp
 0002:0000c07f       $N00293                    1002007f     bufferutil.exp
 0002:0000c09f       $N00294                    1002009f     bufferutil.exp
 0002:0000c0d5       $N00295                    100200d5     bufferutil.exp
 0002:0000c109       $N00296                    10020109     bufferutil.exp
 0002:0000c13c       $N00297                    1002013c     bufferutil.exp
 0002:0000c170       $N00298                    10020170     bufferutil.exp
 0002:0000c18d       $N00299                    1002018d     bufferutil.exp
 0002:0000c1bb       $N00300                    100201bb     bufferutil.exp
 0002:0000c1e8       $N00301                    100201e8     bufferutil.exp
 0002:0000c21b       $N00302                    1002021b     bufferutil.exp
 0002:0000c24a       $N00303                    1002024a     bufferutil.exp
 0002:0000c27e       $N00304                    1002027e     bufferutil.exp
 0002:0000c2a6       $N00305                    100202a6     bufferutil.exp
 0002:0000c2db       $N00306                    100202db     bufferutil.exp
 0002:0000c316       $N00307                    10020316     bufferutil.exp
 0002:0000c34f       $N00308                    1002034f     bufferutil.exp
 0002:0000c387       $N00309                    10020387     bufferutil.exp
 0002:0000c3c0       $N00310                    100203c0     bufferutil.exp
 0002:0000c3f3       $N00311                    100203f3     bufferutil.exp
 0002:0000c439       $N00312                    10020439     bufferutil.exp
 0002:0000c45d       $N00313                    1002045d     bufferutil.exp
 0002:0000c492       $N00314                    10020492     bufferutil.exp
 0002:0000c4bf       $N00315                    100204bf     bufferutil.exp
 0002:0000c4ea       $N00316                    100204ea     bufferutil.exp
 0002:0000c51a       $N00317                    1002051a     bufferutil.exp
 0002:0000c548       $N00318                    10020548     bufferutil.exp
 0002:0000c578       $N00319                    10020578     bufferutil.exp
 0002:0000c5a3       $N00320                    100205a3     bufferutil.exp
 0002:0000c5d9       $N00321                    100205d9     bufferutil.exp
 0002:0000c608       $N00322                    10020608     bufferutil.exp
 0002:0000c632       $N00323                    10020632     bufferutil.exp
 0002:0000c7b8       .idata$6                   100207b8     kernel32:KERNEL32.dll
 0002:0000cc88       .idata$6                   10020c88     advapi32:ADVAPI32.dll
 0003:00000018       ?_Tlg_Microsoft_CRTProviderProv@@3U_TlgProvider_t@__vcrt_trace_logging_provider@@A 10021018     libvcruntime:telemetry.obj
 0003:00000060       ?__vcrt_flsindex@@3KA      10021060     libvcruntime:per_thread_data.obj
 0003:00000084       _errno_no_memory           10021084     libucrt:errno.obj
 0003:00000088       _doserrno_no_memory        10021088     libucrt:errno.obj
 0003:00000138       ___acrt_flsindex           10021138     libucrt:per_thread_data.obj
 0003:00000204       ___rgctypeflag             10021204     libucrt:mbctype.obj
 0003:00000208       ___rgcode_page_info        10021208     libucrt:mbctype.obj
 0003:000007e0       __module                   100217e0     bufferutil.obj
 0003:000009ac       ?__proc_attached@@3HA      100219ac     LIBCMT:dll_dllmain.obj
 0003:000009b0       _GS_ExceptionRecord        100219b0     LIBCMT:gs_report.obj
 0003:00000a00       _GS_ContextRecord          10021a00     LIBCMT:gs_report.obj
 0003:00000cd4       ?module_local_atexit_table@@3U_onexit_table_t@@A 10021cd4     LIBCMT:utility.obj
 0003:00000ce0       ?module_local_at_quick_exit_table@@3U_onexit_table_t@@A 10021ce0     LIBCMT:utility.obj
 0003:00000cec       ?is_initialized_as_dll@@3_NA 10021cec     LIBCMT:utility.obj
 0003:00000d18       ?module_handles@@3PAPAUHINSTANCE__@@A 10021d18     libvcruntime:winapi_downlevel.obj
 0003:00000d28       ?encoded_function_pointers@@3PAPAXA 10021d28     libvcruntime:winapi_downlevel.obj
 0003:00000d4c       ?__vcrt_startup_thread_ptd@@3U__vcrt_ptd@@A 10021d4c     libvcruntime:per_thread_data.obj
 0003:00000d74       ___vcrt_lock_table         10021d74     libvcruntime:locks.obj
 0003:00000d8c       ___vcrt_locks_initialized  10021d8c     libvcruntime:locks.obj
 0003:00000db8       ?heap@@3V_HeapManager@@A   10021db8     libvcruntime:undname.obj
 0003:00000dcc       ___acrt_new_handler        10021dcc     libucrt:new_handler.obj
 0003:00000dd0       _c_termination_complete    10021dd0     libucrt:exit.obj
 0003:00000dd4       _thread_local_exit_callback_func 10021dd4     libucrt:exit.obj
 0003:00000dd8       ?c_exit_complete@?5??common_exit@@YAXHW4_crt_exit_cleanup_mode@@W4_crt_exit_return_mode@@@Z@4_NA 10021dd8     libucrt:exit.obj
 0003:00000e04       ___acrt_invalid_parameter_handler 10021e04     libucrt:invalid_parameter.obj
 0003:00000e08       ___acrt_app_type           10021e08     libucrt:report_runtime_error.obj
 0003:00000e0c       ___acrt_error_mode         10021e0c     libucrt:set_error_mode.obj
 0003:00000e1c       _ctrlc_action              10021e1c     libucrt:signal.obj
 0003:00000e20       _ctrlbreak_action          10021e20     libucrt:signal.obj
 0003:00000e24       _abort_action              10021e24     libucrt:signal.obj
 0003:00000e28       _term_action               10021e28     libucrt:signal.obj
 0003:00000e38       ___acrt_lock_table         10021e38     libucrt:locks.obj
 0003:00000f70       ___acrt_locks_initialized  10021f70     libucrt:locks.obj
 0003:00000f78       _module_handles            10021f78     libucrt:winapi_thunks.obj
 0003:00000fc8       _encoded_function_pointers 10021fc8     libucrt:winapi_thunks.obj
 0003:00001048       ?state_cache@?1??__acrt_is_packaged_app@@9@4JA 10022048     libucrt:winapi_thunks.obj
 0003:00001064       _fSystemSet                10022064     libucrt:mbctype.obj
 0003:00001068       ?initialized@?1??__acrt_initialize_multibyte@@9@4_NA 10022068     libucrt:mbctype.obj
 0003:00001284       _user_matherr              10022284     libucrt:matherr.obj
 0003:00001290       ___acrt_global_new_mode    10022290     libucrt:new_mode.obj
 0003:00001294       _enable_percent_n          10022294     libucrt:printf_count_output.obj
 0003:000012a4       __pmatherr_set             100222a4     libucrt:libm_error.obj
 0004:00000060       $R000000                   10023060     * linker generated manifest res *

 Exports

  ordinal    name

        1    ??0Allocator@ArrayBuffer@v8@@QAE@ABV012@@Z (public: __thiscall v8::ArrayBuffer::Allocator::Allocator(class v8::ArrayBuffer::Allocator const &))
        2    ??0Allocator@ArrayBuffer@v8@@QAE@XZ (public: __thiscall v8::ArrayBuffer::Allocator::Allocator(void))
        3    ??0CachedData@ScriptCompiler@v8@@QAE@XZ (public: __thiscall v8::ScriptCompiler::CachedData::CachedData(void))
        4    ??0Contents@ArrayBuffer@v8@@QAE@XZ (public: __thiscall v8::ArrayBuffer::Contents::Contents(void))
        5    ??0Contents@SharedArrayBuffer@v8@@QAE@XZ (public: __thiscall v8::SharedArrayBuffer::Contents::Contents(void))
        6    ??0ExtensionConfiguration@v8@@QAE@HQAPBD@Z (public: __thiscall v8::ExtensionConfiguration::ExtensionConfiguration(int,char const * * const))
        7    ??0ExtensionConfiguration@v8@@QAE@XZ (public: __thiscall v8::ExtensionConfiguration::ExtensionConfiguration(void))
        8    ??0ExternalOneByteStringResource@String@v8@@IAE@XZ (protected: __thiscall v8::String::ExternalOneByteStringResource::ExternalOneByteStringResource(void))
        9    ??0ExternalOneByteStringResourceImpl@v8@@QAE@PBDI@Z (public: __thiscall v8::ExternalOneByteStringResourceImpl::ExternalOneByteStringResourceImpl(char const *,unsigned int))
       10    ??0ExternalOneByteStringResourceImpl@v8@@QAE@XZ (public: __thiscall v8::ExternalOneByteStringResourceImpl::ExternalOneByteStringResourceImpl(void))
       11    ??0ExternalResourceVisitor@v8@@QAE@ABV01@@Z (public: __thiscall v8::ExternalResourceVisitor::ExternalResourceVisitor(class v8::ExternalResourceVisitor const &))
       12    ??0ExternalResourceVisitor@v8@@QAE@XZ (public: __thiscall v8::ExternalResourceVisitor::ExternalResourceVisitor(void))
       13    ??0ExternalSourceStream@ScriptCompiler@v8@@QAE@ABV012@@Z (public: __thiscall v8::ScriptCompiler::ExternalSourceStream::ExternalSourceStream(class v8::ScriptCompiler::ExternalSourceStream const &))
       14    ??0ExternalSourceStream@ScriptCompiler@v8@@QAE@XZ (public: __thiscall v8::ScriptCompiler::ExternalSourceStream::ExternalSourceStream(void))
       15    ??0ExternalStringResource@String@v8@@IAE@XZ (protected: __thiscall v8::String::ExternalStringResource::ExternalStringResource(void))
       16    ??0ExternalStringResourceBase@String@v8@@IAE@XZ (protected: __thiscall v8::String::ExternalStringResourceBase::ExternalStringResourceBase(void))
       17    ??0HandleScope@v8@@IAE@XZ (protected: __thiscall v8::HandleScope::HandleScope(void))
       18    ??0Locker@v8@@QAE@PAVIsolate@1@@Z (public: __thiscall v8::Locker::Locker(class v8::Isolate *))
       19    ??0PersistentHandleVisitor@v8@@QAE@ABV01@@Z (public: __thiscall v8::PersistentHandleVisitor::PersistentHandleVisitor(class v8::PersistentHandleVisitor const &))
       20    ??0PersistentHandleVisitor@v8@@QAE@XZ (public: __thiscall v8::PersistentHandleVisitor::PersistentHandleVisitor(void))
       21    ??0Scope@Isolate@v8@@QAE@PAV12@@Z (public: __thiscall v8::Isolate::Scope::Scope(class v8::Isolate *))
       22    ??0Unlocker@v8@@QAE@PAVIsolate@1@@Z (public: __thiscall v8::Unlocker::Unlocker(class v8::Isolate *))
       23    ??1Allocator@ArrayBuffer@v8@@UAE@XZ (public: virtual __thiscall v8::ArrayBuffer::Allocator::~Allocator(void))
       24    ??1EscapableHandleScope@v8@@QAE@XZ (public: __thiscall v8::EscapableHandleScope::~EscapableHandleScope(void))
       25    ??1Extension@v8@@UAE@XZ (public: virtual __thiscall v8::Extension::~Extension(void))
       26    ??1ExternalOneByteStringResource@String@v8@@UAE@XZ (public: virtual __thiscall v8::String::ExternalOneByteStringResource::~ExternalOneByteStringResource(void))
       27    ??1ExternalOneByteStringResourceImpl@v8@@UAE@XZ (public: virtual __thiscall v8::ExternalOneByteStringResourceImpl::~ExternalOneByteStringResourceImpl(void))
       28    ??1ExternalResourceVisitor@v8@@UAE@XZ (public: virtual __thiscall v8::ExternalResourceVisitor::~ExternalResourceVisitor(void))
       29    ??1ExternalSourceStream@ScriptCompiler@v8@@UAE@XZ (public: virtual __thiscall v8::ScriptCompiler::ExternalSourceStream::~ExternalSourceStream(void))
       30    ??1ExternalStringResource@String@v8@@UAE@XZ (public: virtual __thiscall v8::String::ExternalStringResource::~ExternalStringResource(void))
       31    ??1ExternalStringResourceBase@String@v8@@UAE@XZ (public: virtual __thiscall v8::String::ExternalStringResourceBase::~ExternalStringResourceBase(void))
       32    ??1PersistentHandleVisitor@v8@@UAE@XZ (public: virtual __thiscall v8::PersistentHandleVisitor::~PersistentHandleVisitor(void))
       33    ??1Scope@Isolate@v8@@QAE@XZ (public: __thiscall v8::Isolate::Scope::~Scope(void))
       34    ??4AccessorSignature@v8@@QAEAAV01@$$QAV01@@Z (public: class v8::AccessorSignature & __thiscall v8::AccessorSignature::operator=(class v8::AccessorSignature &&))
       35    ??4AccessorSignature@v8@@QAEAAV01@ABV01@@Z (public: class v8::AccessorSignature & __thiscall v8::AccessorSignature::operator=(class v8::AccessorSignature const &))
       36    ??4Allocator@ArrayBuffer@v8@@QAEAAV012@ABV012@@Z (public: class v8::ArrayBuffer::Allocator & __thiscall v8::ArrayBuffer::Allocator::operator=(class v8::ArrayBuffer::Allocator const &))
       37    ??4Array@v8@@QAEAAV01@$$QAV01@@Z (public: class v8::Array & __thiscall v8::Array::operator=(class v8::Array &&))
       38    ??4Array@v8@@QAEAAV01@ABV01@@Z (public: class v8::Array & __thiscall v8::Array::operator=(class v8::Array const &))
       39    ??4ArrayBuffer@v8@@QAEAAV01@$$QAV01@@Z (public: class v8::ArrayBuffer & __thiscall v8::ArrayBuffer::operator=(class v8::ArrayBuffer &&))
       40    ??4ArrayBuffer@v8@@QAEAAV01@ABV01@@Z (public: class v8::ArrayBuffer & __thiscall v8::ArrayBuffer::operator=(class v8::ArrayBuffer const &))
       41    ??4ArrayBufferView@v8@@QAEAAV01@$$QAV01@@Z (public: class v8::ArrayBufferView & __thiscall v8::ArrayBufferView::operator=(class v8::ArrayBufferView &&))
       42    ??4ArrayBufferView@v8@@QAEAAV01@ABV01@@Z (public: class v8::ArrayBufferView & __thiscall v8::ArrayBufferView::operator=(class v8::ArrayBufferView const &))
       43    ??4Boolean@v8@@QAEAAV01@$$QAV01@@Z (public: class v8::Boolean & __thiscall v8::Boolean::operator=(class v8::Boolean &&))
       44    ??4Boolean@v8@@QAEAAV01@ABV01@@Z (public: class v8::Boolean & __thiscall v8::Boolean::operator=(class v8::Boolean const &))
       45    ??4BooleanObject@v8@@QAEAAV01@$$QAV01@@Z (public: class v8::BooleanObject & __thiscall v8::BooleanObject::operator=(class v8::BooleanObject &&))
       46    ??4BooleanObject@v8@@QAEAAV01@ABV01@@Z (public: class v8::BooleanObject & __thiscall v8::BooleanObject::operator=(class v8::BooleanObject const &))
       47    ??4Contents@ArrayBuffer@v8@@QAEAAV012@$$QAV012@@Z (public: class v8::ArrayBuffer::Contents & __thiscall v8::ArrayBuffer::Contents::operator=(class v8::ArrayBuffer::Contents &&))
       48    ??4Contents@ArrayBuffer@v8@@QAEAAV012@ABV012@@Z (public: class v8::ArrayBuffer::Contents & __thiscall v8::ArrayBuffer::Contents::operator=(class v8::ArrayBuffer::Contents const &))
       49    ??4Contents@SharedArrayBuffer@v8@@QAEAAV012@$$QAV012@@Z (public: class v8::SharedArrayBuffer::Contents & __thiscall v8::SharedArrayBuffer::Contents::operator=(class v8::SharedArrayBuffer::Contents &&))
       50    ??4Contents@SharedArrayBuffer@v8@@QAEAAV012@ABV012@@Z (public: class v8::SharedArrayBuffer::Contents & __thiscall v8::SharedArrayBuffer::Contents::operator=(class v8::SharedArrayBuffer::Contents const &))
       51    ??4Context@v8@@QAEAAV01@$$QAV01@@Z (public: class v8::Context & __thiscall v8::Context::operator=(class v8::Context &&))
       52    ??4Context@v8@@QAEAAV01@ABV01@@Z (public: class v8::Context & __thiscall v8::Context::operator=(class v8::Context const &))
       53    ??4Data@v8@@QAEAAV01@$$QAV01@@Z (public: class v8::Data & __thiscall v8::Data::operator=(class v8::Data &&))
       54    ??4Data@v8@@QAEAAV01@ABV01@@Z (public: class v8::Data & __thiscall v8::Data::operator=(class v8::Data const &))
       55    ??4DataView@v8@@QAEAAV01@$$QAV01@@Z (public: class v8::DataView & __thiscall v8::DataView::operator=(class v8::DataView &&))
       56    ??4DataView@v8@@QAEAAV01@ABV01@@Z (public: class v8::DataView & __thiscall v8::DataView::operator=(class v8::DataView const &))
       57    ??4Date@v8@@QAEAAV01@$$QAV01@@Z (public: class v8::Date & __thiscall v8::Date::operator=(class v8::Date &&))
       58    ??4Date@v8@@QAEAAV01@ABV01@@Z (public: class v8::Date & __thiscall v8::Date::operator=(class v8::Date const &))
       59    ??4Exception@v8@@QAEAAV01@$$QAV01@@Z (public: class v8::Exception & __thiscall v8::Exception::operator=(class v8::Exception &&))
       60    ??4Exception@v8@@QAEAAV01@ABV01@@Z (public: class v8::Exception & __thiscall v8::Exception::operator=(class v8::Exception const &))
       61    ??4External@v8@@QAEAAV01@$$QAV01@@Z (public: class v8::External & __thiscall v8::External::operator=(class v8::External &&))
       62    ??4External@v8@@QAEAAV01@ABV01@@Z (public: class v8::External & __thiscall v8::External::operator=(class v8::External const &))
       63    ??4ExternalResourceVisitor@v8@@QAEAAV01@ABV01@@Z (public: class v8::ExternalResourceVisitor & __thiscall v8::ExternalResourceVisitor::operator=(class v8::ExternalResourceVisitor const &))
       64    ??4ExternalSourceStream@ScriptCompiler@v8@@QAEAAV012@ABV012@@Z (public: class v8::ScriptCompiler::ExternalSourceStream & __thiscall v8::ScriptCompiler::ExternalSourceStream::operator=(class v8::ScriptCompiler::ExternalSourceStream const &))
       65    ??4Float32Array@v8@@QAEAAV01@$$QAV01@@Z (public: class v8::Float32Array & __thiscall v8::Float32Array::operator=(class v8::Float32Array &&))
       66    ??4Float32Array@v8@@QAEAAV01@ABV01@@Z (public: class v8::Float32Array & __thiscall v8::Float32Array::operator=(class v8::Float32Array const &))
       67    ??4Float64Array@v8@@QAEAAV01@$$QAV01@@Z (public: class v8::Float64Array & __thiscall v8::Float64Array::operator=(class v8::Float64Array &&))
       68    ??4Float64Array@v8@@QAEAAV01@ABV01@@Z (public: class v8::Float64Array & __thiscall v8::Float64Array::operator=(class v8::Float64Array const &))
       69    ??4Function@v8@@QAEAAV01@$$QAV01@@Z (public: class v8::Function & __thiscall v8::Function::operator=(class v8::Function &&))
       70    ??4Function@v8@@QAEAAV01@ABV01@@Z (public: class v8::Function & __thiscall v8::Function::operator=(class v8::Function const &))
       71    ??4FunctionTemplate@v8@@QAEAAV01@$$QAV01@@Z (public: class v8::FunctionTemplate & __thiscall v8::FunctionTemplate::operator=(class v8::FunctionTemplate &&))
       72    ??4FunctionTemplate@v8@@QAEAAV01@ABV01@@Z (public: class v8::FunctionTemplate & __thiscall v8::FunctionTemplate::operator=(class v8::FunctionTemplate const &))
       73    ??4HeapObjectStatistics@v8@@QAEAAV01@$$QAV01@@Z (public: class v8::HeapObjectStatistics & __thiscall v8::HeapObjectStatistics::operator=(class v8::HeapObjectStatistics &&))
       74    ??4HeapObjectStatistics@v8@@QAEAAV01@ABV01@@Z (public: class v8::HeapObjectStatistics & __thiscall v8::HeapObjectStatistics::operator=(class v8::HeapObjectStatistics const &))
       75    ??4HeapSpaceStatistics@v8@@QAEAAV01@$$QAV01@@Z (public: class v8::HeapSpaceStatistics & __thiscall v8::HeapSpaceStatistics::operator=(class v8::HeapSpaceStatistics &&))
       76    ??4HeapSpaceStatistics@v8@@QAEAAV01@ABV01@@Z (public: class v8::HeapSpaceStatistics & __thiscall v8::HeapSpaceStatistics::operator=(class v8::HeapSpaceStatistics const &))
       77    ??4HeapStatistics@v8@@QAEAAV01@$$QAV01@@Z (public: class v8::HeapStatistics & __thiscall v8::HeapStatistics::operator=(class v8::HeapStatistics &&))
       78    ??4HeapStatistics@v8@@QAEAAV01@ABV01@@Z (public: class v8::HeapStatistics & __thiscall v8::HeapStatistics::operator=(class v8::HeapStatistics const &))
       79    ??4Int16Array@v8@@QAEAAV01@$$QAV01@@Z (public: class v8::Int16Array & __thiscall v8::Int16Array::operator=(class v8::Int16Array &&))
       80    ??4Int16Array@v8@@QAEAAV01@ABV01@@Z (public: class v8::Int16Array & __thiscall v8::Int16Array::operator=(class v8::Int16Array const &))
       81    ??4Int32@v8@@QAEAAV01@$$QAV01@@Z (public: class v8::Int32 & __thiscall v8::Int32::operator=(class v8::Int32 &&))
       82    ??4Int32@v8@@QAEAAV01@ABV01@@Z (public: class v8::Int32 & __thiscall v8::Int32::operator=(class v8::Int32 const &))
       83    ??4Int32Array@v8@@QAEAAV01@$$QAV01@@Z (public: class v8::Int32Array & __thiscall v8::Int32Array::operator=(class v8::Int32Array &&))
       84    ??4Int32Array@v8@@QAEAAV01@ABV01@@Z (public: class v8::Int32Array & __thiscall v8::Int32Array::operator=(class v8::Int32Array const &))
       85    ??4Int8Array@v8@@QAEAAV01@$$QAV01@@Z (public: class v8::Int8Array & __thiscall v8::Int8Array::operator=(class v8::Int8Array &&))
       86    ??4Int8Array@v8@@QAEAAV01@ABV01@@Z (public: class v8::Int8Array & __thiscall v8::Int8Array::operator=(class v8::Int8Array const &))
       87    ??4Integer@v8@@QAEAAV01@$$QAV01@@Z (public: class v8::Integer & __thiscall v8::Integer::operator=(class v8::Integer &&))
       88    ??4Integer@v8@@QAEAAV01@ABV01@@Z (public: class v8::Integer & __thiscall v8::Integer::operator=(class v8::Integer const &))
       89    ??4JSON@v8@@QAEAAV01@$$QAV01@@Z (public: class v8::JSON & __thiscall v8::JSON::operator=(class v8::JSON &&))
       90    ??4JSON@v8@@QAEAAV01@ABV01@@Z (public: class v8::JSON & __thiscall v8::JSON::operator=(class v8::JSON const &))
       91    ??4Map@v8@@QAEAAV01@$$QAV01@@Z (public: class v8::Map & __thiscall v8::Map::operator=(class v8::Map &&))
       92    ??4Map@v8@@QAEAAV01@ABV01@@Z (public: class v8::Map & __thiscall v8::Map::operator=(class v8::Map const &))
       93    ??4Message@v8@@QAEAAV01@$$QAV01@@Z (public: class v8::Message & __thiscall v8::Message::operator=(class v8::Message &&))
       94    ??4Message@v8@@QAEAAV01@ABV01@@Z (public: class v8::Message & __thiscall v8::Message::operator=(class v8::Message const &))
       95    ??4Name@v8@@QAEAAV01@$$QAV01@@Z (public: class v8::Name & __thiscall v8::Name::operator=(class v8::Name &&))
       96    ??4Name@v8@@QAEAAV01@ABV01@@Z (public: class v8::Name & __thiscall v8::Name::operator=(class v8::Name const &))
       97    ??4NativeWeakMap@v8@@QAEAAV01@$$QAV01@@Z (public: class v8::NativeWeakMap & __thiscall v8::NativeWeakMap::operator=(class v8::NativeWeakMap &&))
       98    ??4NativeWeakMap@v8@@QAEAAV01@ABV01@@Z (public: class v8::NativeWeakMap & __thiscall v8::NativeWeakMap::operator=(class v8::NativeWeakMap const &))
       99    ??4Number@v8@@QAEAAV01@$$QAV01@@Z (public: class v8::Number & __thiscall v8::Number::operator=(class v8::Number &&))
      100    ??4Number@v8@@QAEAAV01@ABV01@@Z (public: class v8::Number & __thiscall v8::Number::operator=(class v8::Number const &))
      101    ??4NumberObject@v8@@QAEAAV01@$$QAV01@@Z (public: class v8::NumberObject & __thiscall v8::NumberObject::operator=(class v8::NumberObject &&))
      102    ??4NumberObject@v8@@QAEAAV01@ABV01@@Z (public: class v8::NumberObject & __thiscall v8::NumberObject::operator=(class v8::NumberObject const &))
      103    ??4Object@v8@@QAEAAV01@$$QAV01@@Z (public: class v8::Object & __thiscall v8::Object::operator=(class v8::Object &&))
      104    ??4Object@v8@@QAEAAV01@ABV01@@Z (public: class v8::Object & __thiscall v8::Object::operator=(class v8::Object const &))
      105    ??4ObjectTemplate@v8@@QAEAAV01@$$QAV01@@Z (public: class v8::ObjectTemplate & __thiscall v8::ObjectTemplate::operator=(class v8::ObjectTemplate &&))
      106    ??4ObjectTemplate@v8@@QAEAAV01@ABV01@@Z (public: class v8::ObjectTemplate & __thiscall v8::ObjectTemplate::operator=(class v8::ObjectTemplate const &))
      107    ??4PersistentHandleVisitor@v8@@QAEAAV01@ABV01@@Z (public: class v8::PersistentHandleVisitor & __thiscall v8::PersistentHandleVisitor::operator=(class v8::PersistentHandleVisitor const &))
      108    ??4Primitive@v8@@QAEAAV01@$$QAV01@@Z (public: class v8::Primitive & __thiscall v8::Primitive::operator=(class v8::Primitive &&))
      109    ??4Primitive@v8@@QAEAAV01@ABV01@@Z (public: class v8::Primitive & __thiscall v8::Primitive::operator=(class v8::Primitive const &))
      110    ??4Promise@v8@@QAEAAV01@$$QAV01@@Z (public: class v8::Promise & __thiscall v8::Promise::operator=(class v8::Promise &&))
      111    ??4Promise@v8@@QAEAAV01@ABV01@@Z (public: class v8::Promise & __thiscall v8::Promise::operator=(class v8::Promise const &))
      112    ??4RegExp@v8@@QAEAAV01@$$QAV01@@Z (public: class v8::RegExp & __thiscall v8::RegExp::operator=(class v8::RegExp &&))
      113    ??4RegExp@v8@@QAEAAV01@ABV01@@Z (public: class v8::RegExp & __thiscall v8::RegExp::operator=(class v8::RegExp const &))
      114    ??4Resolver@Promise@v8@@QAEAAV012@$$QAV012@@Z (public: class v8::Promise::Resolver & __thiscall v8::Promise::Resolver::operator=(class v8::Promise::Resolver &&))
      115    ??4Resolver@Promise@v8@@QAEAAV012@ABV012@@Z (public: class v8::Promise::Resolver & __thiscall v8::Promise::Resolver::operator=(class v8::Promise::Resolver const &))
      116    ??4ResourceConstraints@v8@@QAEAAV01@$$QAV01@@Z (public: class v8::ResourceConstraints & __thiscall v8::ResourceConstraints::operator=(class v8::ResourceConstraints &&))
      117    ??4ResourceConstraints@v8@@QAEAAV01@ABV01@@Z (public: class v8::ResourceConstraints & __thiscall v8::ResourceConstraints::operator=(class v8::ResourceConstraints const &))
      118    ??4Script@v8@@QAEAAV01@$$QAV01@@Z (public: class v8::Script & __thiscall v8::Script::operator=(class v8::Script &&))
      119    ??4Script@v8@@QAEAAV01@ABV01@@Z (public: class v8::Script & __thiscall v8::Script::operator=(class v8::Script const &))
      120    ??4ScriptCompiler@v8@@QAEAAV01@$$QAV01@@Z (public: class v8::ScriptCompiler & __thiscall v8::ScriptCompiler::operator=(class v8::ScriptCompiler &&))
      121    ??4ScriptCompiler@v8@@QAEAAV01@ABV01@@Z (public: class v8::ScriptCompiler & __thiscall v8::ScriptCompiler::operator=(class v8::ScriptCompiler const &))
      122    ??4Set@v8@@QAEAAV01@$$QAV01@@Z (public: class v8::Set & __thiscall v8::Set::operator=(class v8::Set &&))
      123    ??4Set@v8@@QAEAAV01@ABV01@@Z (public: class v8::Set & __thiscall v8::Set::operator=(class v8::Set const &))
      124    ??4SharedArrayBuffer@v8@@QAEAAV01@$$QAV01@@Z (public: class v8::SharedArrayBuffer & __thiscall v8::SharedArrayBuffer::operator=(class v8::SharedArrayBuffer &&))
      125    ??4SharedArrayBuffer@v8@@QAEAAV01@ABV01@@Z (public: class v8::SharedArrayBuffer & __thiscall v8::SharedArrayBuffer::operator=(class v8::SharedArrayBuffer const &))
      126    ??4Signature@v8@@QAEAAV01@$$QAV01@@Z (public: class v8::Signature & __thiscall v8::Signature::operator=(class v8::Signature &&))
      127    ??4Signature@v8@@QAEAAV01@ABV01@@Z (public: class v8::Signature & __thiscall v8::Signature::operator=(class v8::Signature const &))
      128    ??4StackFrame@v8@@QAEAAV01@$$QAV01@@Z (public: class v8::StackFrame & __thiscall v8::StackFrame::operator=(class v8::StackFrame &&))
      129    ??4StackFrame@v8@@QAEAAV01@ABV01@@Z (public: class v8::StackFrame & __thiscall v8::StackFrame::operator=(class v8::StackFrame const &))
      130    ??4StackTrace@v8@@QAEAAV01@$$QAV01@@Z (public: class v8::StackTrace & __thiscall v8::StackTrace::operator=(class v8::StackTrace &&))
      131    ??4StackTrace@v8@@QAEAAV01@ABV01@@Z (public: class v8::StackTrace & __thiscall v8::StackTrace::operator=(class v8::StackTrace const &))
      132    ??4StartupData@v8@@QAEAAV01@$$QAV01@@Z (public: class v8::StartupData & __thiscall v8::StartupData::operator=(class v8::StartupData &&))
      133    ??4StartupData@v8@@QAEAAV01@ABV01@@Z (public: class v8::StartupData & __thiscall v8::StartupData::operator=(class v8::StartupData const &))
      134    ??4String@v8@@QAEAAV01@$$QAV01@@Z (public: class v8::String & __thiscall v8::String::operator=(class v8::String &&))
      135    ??4String@v8@@QAEAAV01@ABV01@@Z (public: class v8::String & __thiscall v8::String::operator=(class v8::String const &))
      136    ??4StringObject@v8@@QAEAAV01@$$QAV01@@Z (public: class v8::StringObject & __thiscall v8::StringObject::operator=(class v8::StringObject &&))
      137    ??4StringObject@v8@@QAEAAV01@ABV01@@Z (public: class v8::StringObject & __thiscall v8::StringObject::operator=(class v8::StringObject const &))
      138    ??4Symbol@v8@@QAEAAV01@$$QAV01@@Z (public: class v8::Symbol & __thiscall v8::Symbol::operator=(class v8::Symbol &&))
      139    ??4Symbol@v8@@QAEAAV01@ABV01@@Z (public: class v8::Symbol & __thiscall v8::Symbol::operator=(class v8::Symbol const &))
      140    ??4SymbolObject@v8@@QAEAAV01@$$QAV01@@Z (public: class v8::SymbolObject & __thiscall v8::SymbolObject::operator=(class v8::SymbolObject &&))
      141    ??4SymbolObject@v8@@QAEAAV01@ABV01@@Z (public: class v8::SymbolObject & __thiscall v8::SymbolObject::operator=(class v8::SymbolObject const &))
      142    ??4Template@v8@@QAEAAV01@$$QAV01@@Z (public: class v8::Template & __thiscall v8::Template::operator=(class v8::Template &&))
      143    ??4Template@v8@@QAEAAV01@ABV01@@Z (public: class v8::Template & __thiscall v8::Template::operator=(class v8::Template const &))
      144    ??4TypeSwitch@v8@@QAEAAV01@$$QAV01@@Z (public: class v8::TypeSwitch & __thiscall v8::TypeSwitch::operator=(class v8::TypeSwitch &&))
      145    ??4TypeSwitch@v8@@QAEAAV01@ABV01@@Z (public: class v8::TypeSwitch & __thiscall v8::TypeSwitch::operator=(class v8::TypeSwitch const &))
      146    ??4TypedArray@v8@@QAEAAV01@$$QAV01@@Z (public: class v8::TypedArray & __thiscall v8::TypedArray::operator=(class v8::TypedArray &&))
      147    ??4TypedArray@v8@@QAEAAV01@ABV01@@Z (public: class v8::TypedArray & __thiscall v8::TypedArray::operator=(class v8::TypedArray const &))
      148    ??4Uint16Array@v8@@QAEAAV01@$$QAV01@@Z (public: class v8::Uint16Array & __thiscall v8::Uint16Array::operator=(class v8::Uint16Array &&))
      149    ??4Uint16Array@v8@@QAEAAV01@ABV01@@Z (public: class v8::Uint16Array & __thiscall v8::Uint16Array::operator=(class v8::Uint16Array const &))
      150    ??4Uint32@v8@@QAEAAV01@$$QAV01@@Z (public: class v8::Uint32 & __thiscall v8::Uint32::operator=(class v8::Uint32 &&))
      151    ??4Uint32@v8@@QAEAAV01@ABV01@@Z (public: class v8::Uint32 & __thiscall v8::Uint32::operator=(class v8::Uint32 const &))
      152    ??4Uint32Array@v8@@QAEAAV01@$$QAV01@@Z (public: class v8::Uint32Array & __thiscall v8::Uint32Array::operator=(class v8::Uint32Array &&))
      153    ??4Uint32Array@v8@@QAEAAV01@ABV01@@Z (public: class v8::Uint32Array & __thiscall v8::Uint32Array::operator=(class v8::Uint32Array const &))
      154    ??4Uint8Array@v8@@QAEAAV01@$$QAV01@@Z (public: class v8::Uint8Array & __thiscall v8::Uint8Array::operator=(class v8::Uint8Array &&))
      155    ??4Uint8Array@v8@@QAEAAV01@ABV01@@Z (public: class v8::Uint8Array & __thiscall v8::Uint8Array::operator=(class v8::Uint8Array const &))
      156    ??4Uint8ClampedArray@v8@@QAEAAV01@$$QAV01@@Z (public: class v8::Uint8ClampedArray & __thiscall v8::Uint8ClampedArray::operator=(class v8::Uint8ClampedArray &&))
      157    ??4Uint8ClampedArray@v8@@QAEAAV01@ABV01@@Z (public: class v8::Uint8ClampedArray & __thiscall v8::Uint8ClampedArray::operator=(class v8::Uint8ClampedArray const &))
      158    ??4UnboundScript@v8@@QAEAAV01@$$QAV01@@Z (public: class v8::UnboundScript & __thiscall v8::UnboundScript::operator=(class v8::UnboundScript &&))
      159    ??4UnboundScript@v8@@QAEAAV01@ABV01@@Z (public: class v8::UnboundScript & __thiscall v8::UnboundScript::operator=(class v8::UnboundScript const &))
      160    ??4Unlocker@v8@@QAEAAV01@ABV01@@Z (public: class v8::Unlocker & __thiscall v8::Unlocker::operator=(class v8::Unlocker const &))
      161    ??4V8@v8@@QAEAAV01@$$QAV01@@Z (public: class v8::V8 & __thiscall v8::V8::operator=(class v8::V8 &&))
      162    ??4V8@v8@@QAEAAV01@ABV01@@Z (public: class v8::V8 & __thiscall v8::V8::operator=(class v8::V8 const &))
      163    ??4Value@v8@@QAEAAV01@$$QAV01@@Z (public: class v8::Value & __thiscall v8::Value::operator=(class v8::Value &&))
      164    ??4Value@v8@@QAEAAV01@ABV01@@Z (public: class v8::Value & __thiscall v8::Value::operator=(class v8::Value const &))
      165    ??DUtf8Value@String@v8@@QAEPADXZ (public: char * __thiscall v8::String::Utf8Value::operator*(void))
      166    ??DUtf8Value@String@v8@@QBEPBDXZ (public: char const * __thiscall v8::String::Utf8Value::operator*(void)const )
      167    ??DValue@String@v8@@QAEPAGXZ (public: unsigned short * __thiscall v8::String::Value::operator*(void))
      168    ??DValue@String@v8@@QBEPBGXZ (public: unsigned short const * __thiscall v8::String::Value::operator*(void)const )
      169    ??_7Allocator@ArrayBuffer@v8@@6B@ (const v8::ArrayBuffer::Allocator::`vftable')
      170    ??_7Extension@v8@@6B@ (const v8::Extension::`vftable')
      171    ??_7ExternalOneByteStringResource@String@v8@@6B@ (const v8::String::ExternalOneByteStringResource::`vftable')
      172    ??_7ExternalOneByteStringResourceImpl@v8@@6B@ (const v8::ExternalOneByteStringResourceImpl::`vftable')
      173    ??_7ExternalResourceVisitor@v8@@6B@ (const v8::ExternalResourceVisitor::`vftable')
      174    ??_7ExternalSourceStream@ScriptCompiler@v8@@6B@ (const v8::ScriptCompiler::ExternalSourceStream::`vftable')
      175    ??_7ExternalStringResource@String@v8@@6B@ (const v8::String::ExternalStringResource::`vftable')
      176    ??_7ExternalStringResourceBase@String@v8@@6B@ (const v8::String::ExternalStringResourceBase::`vftable')
      177    ??_7PersistentHandleVisitor@v8@@6B@ (const v8::PersistentHandleVisitor::`vftable')
      178    ?AddMemoryAllocationCallback@V8@v8@@SAXP6AXW4ObjectSpace@2@W4AllocationAction@2@H@Z01@Z (public: static void __cdecl v8::V8::AddMemoryAllocationCallback(void (__cdecl*)(enum v8::ObjectSpace,enum v8::AllocationAction,int),enum v8::ObjectSpace,enum v8::AllocationAction))
      179    ?AddMessageListener@V8@v8@@SA_NP6AXV?$Local@VMessage@v8@@@2@V?$Local@VValue@v8@@@2@@Z1@Z (public: static bool __cdecl v8::V8::AddMessageListener(void (__cdecl*)(class v8::Local<class v8::Message>,class v8::Local<class v8::Value>),class v8::Local<class v8::Value>))
      180    ?AdjustAmountOfExternalAllocatedMemory@Isolate@v8@@QAE_J_J@Z (public: __int64 __thiscall v8::Isolate::AdjustAmountOfExternalAllocatedMemory(__int64))
      181    ?ByteLength@Contents@ArrayBuffer@v8@@QBEIXZ (public: unsigned int __thiscall v8::ArrayBuffer::Contents::ByteLength(void)const )
      182    ?ByteLength@Contents@SharedArrayBuffer@v8@@QBEIXZ (public: unsigned int __thiscall v8::SharedArrayBuffer::Contents::ByteLength(void)const )
      183    ?CancelTerminateExecution@V8@v8@@SAXPAVIsolate@2@@Z (public: static void __cdecl v8::V8::CancelTerminateExecution(class v8::Isolate *))
      184    ?Cast@Array@v8@@SAPAV12@PAVValue@2@@Z (public: static class v8::Array * __cdecl v8::Array::Cast(class v8::Value *))
      185    ?Cast@ArrayBuffer@v8@@SAPAV12@PAVValue@2@@Z (public: static class v8::ArrayBuffer * __cdecl v8::ArrayBuffer::Cast(class v8::Value *))
      186    ?Cast@ArrayBufferView@v8@@SAPAV12@PAVValue@2@@Z (public: static class v8::ArrayBufferView * __cdecl v8::ArrayBufferView::Cast(class v8::Value *))
      187    ?Cast@Boolean@v8@@SAPAV12@PAVValue@2@@Z (public: static class v8::Boolean * __cdecl v8::Boolean::Cast(class v8::Value *))
      188    ?Cast@BooleanObject@v8@@SAPAV12@PAVValue@2@@Z (public: static class v8::BooleanObject * __cdecl v8::BooleanObject::Cast(class v8::Value *))
      189    ?Cast@DataView@v8@@SAPAV12@PAVValue@2@@Z (public: static class v8::DataView * __cdecl v8::DataView::Cast(class v8::Value *))
      190    ?Cast@Date@v8@@SAPAV12@PAVValue@2@@Z (public: static class v8::Date * __cdecl v8::Date::Cast(class v8::Value *))
      191    ?Cast@External@v8@@SAPAV12@PAVValue@2@@Z (public: static class v8::External * __cdecl v8::External::Cast(class v8::Value *))
      192    ?Cast@Float32Array@v8@@SAPAV12@PAVValue@2@@Z (public: static class v8::Float32Array * __cdecl v8::Float32Array::Cast(class v8::Value *))
      193    ?Cast@Float64Array@v8@@SAPAV12@PAVValue@2@@Z (public: static class v8::Float64Array * __cdecl v8::Float64Array::Cast(class v8::Value *))
      194    ?Cast@Function@v8@@SAPAV12@PAVValue@2@@Z (public: static class v8::Function * __cdecl v8::Function::Cast(class v8::Value *))
      195    ?Cast@Int16Array@v8@@SAPAV12@PAVValue@2@@Z (public: static class v8::Int16Array * __cdecl v8::Int16Array::Cast(class v8::Value *))
      196    ?Cast@Int32@v8@@SAPAV12@PAVValue@2@@Z (public: static class v8::Int32 * __cdecl v8::Int32::Cast(class v8::Value *))
      197    ?Cast@Int32Array@v8@@SAPAV12@PAVValue@2@@Z (public: static class v8::Int32Array * __cdecl v8::Int32Array::Cast(class v8::Value *))
      198    ?Cast@Int8Array@v8@@SAPAV12@PAVValue@2@@Z (public: static class v8::Int8Array * __cdecl v8::Int8Array::Cast(class v8::Value *))
      199    ?Cast@Integer@v8@@SAPAV12@PAVValue@2@@Z (public: static class v8::Integer * __cdecl v8::Integer::Cast(class v8::Value *))
      200    ?Cast@Map@v8@@SAPAV12@PAVValue@2@@Z (public: static class v8::Map * __cdecl v8::Map::Cast(class v8::Value *))
      201    ?Cast@Name@v8@@SAPAV12@PAVValue@2@@Z (public: static class v8::Name * __cdecl v8::Name::Cast(class v8::Value *))
      202    ?Cast@Number@v8@@SAPAV12@PAVValue@2@@Z (public: static class v8::Number * __cdecl v8::Number::Cast(class v8::Value *))
      203    ?Cast@NumberObject@v8@@SAPAV12@PAVValue@2@@Z (public: static class v8::NumberObject * __cdecl v8::NumberObject::Cast(class v8::Value *))
      204    ?Cast@Object@v8@@SAPAV12@PAVValue@2@@Z (public: static class v8::Object * __cdecl v8::Object::Cast(class v8::Value *))
      205    ?Cast@Promise@v8@@SAPAV12@PAVValue@2@@Z (public: static class v8::Promise * __cdecl v8::Promise::Cast(class v8::Value *))
      206    ?Cast@RegExp@v8@@SAPAV12@PAVValue@2@@Z (public: static class v8::RegExp * __cdecl v8::RegExp::Cast(class v8::Value *))
      207    ?Cast@Resolver@Promise@v8@@SAPAV123@PAVValue@3@@Z (public: static class v8::Promise::Resolver * __cdecl v8::Promise::Resolver::Cast(class v8::Value *))
      208    ?Cast@Set@v8@@SAPAV12@PAVValue@2@@Z (public: static class v8::Set * __cdecl v8::Set::Cast(class v8::Value *))
      209    ?Cast@SharedArrayBuffer@v8@@SAPAV12@PAVValue@2@@Z (public: static class v8::SharedArrayBuffer * __cdecl v8::SharedArrayBuffer::Cast(class v8::Value *))
      210    ?Cast@String@v8@@SAPAV12@PAVValue@2@@Z (public: static class v8::String * __cdecl v8::String::Cast(class v8::Value *))
      211    ?Cast@StringObject@v8@@SAPAV12@PAVValue@2@@Z (public: static class v8::StringObject * __cdecl v8::StringObject::Cast(class v8::Value *))
      212    ?Cast@Symbol@v8@@SAPAV12@PAVValue@2@@Z (public: static class v8::Symbol * __cdecl v8::Symbol::Cast(class v8::Value *))
      213    ?Cast@SymbolObject@v8@@SAPAV12@PAVValue@2@@Z (public: static class v8::SymbolObject * __cdecl v8::SymbolObject::Cast(class v8::Value *))
      214    ?Cast@TypedArray@v8@@SAPAV12@PAVValue@2@@Z (public: static class v8::TypedArray * __cdecl v8::TypedArray::Cast(class v8::Value *))
      215    ?Cast@Uint16Array@v8@@SAPAV12@PAVValue@2@@Z (public: static class v8::Uint16Array * __cdecl v8::Uint16Array::Cast(class v8::Value *))
      216    ?Cast@Uint32@v8@@SAPAV12@PAVValue@2@@Z (public: static class v8::Uint32 * __cdecl v8::Uint32::Cast(class v8::Value *))
      217    ?Cast@Uint32Array@v8@@SAPAV12@PAVValue@2@@Z (public: static class v8::Uint32Array * __cdecl v8::Uint32Array::Cast(class v8::Value *))
      218    ?Cast@Uint8Array@v8@@SAPAV12@PAVValue@2@@Z (public: static class v8::Uint8Array * __cdecl v8::Uint8Array::Cast(class v8::Value *))
      219    ?Cast@Uint8ClampedArray@v8@@SAPAV12@PAVValue@2@@Z (public: static class v8::Uint8ClampedArray * __cdecl v8::Uint8ClampedArray::Cast(class v8::Value *))
      220    ?Data@Contents@ArrayBuffer@v8@@QBEPAXXZ (public: void * __thiscall v8::ArrayBuffer::Contents::Data(void)const )
      221    ?Data@Contents@SharedArrayBuffer@v8@@QBEPAXXZ (public: void * __thiscall v8::SharedArrayBuffer::Contents::Data(void)const )
      222    ?Dispose@ExternalStringResourceBase@String@v8@@MAEXXZ (protected: virtual void __thiscall v8::String::ExternalStringResourceBase::Dispose(void))
      223    ?Empty@String@v8@@SA?AV?$Local@VString@v8@@@2@PAVIsolate@2@@Z (public: static class v8::Local<class v8::String> __cdecl v8::String::Empty(class v8::Isolate *))
      224    ?GetAlignedPointerFromEmbedderData@Context@v8@@QAEPAXH@Z (public: void * __thiscall v8::Context::GetAlignedPointerFromEmbedderData(int))
      225    ?GetAlignedPointerFromInternalField@Object@v8@@QAEPAXH@Z (public: void * __thiscall v8::Object::GetAlignedPointerFromInternalField(int))
      226    ?GetAlignedPointerFromInternalField@Object@v8@@SAPAXABV?$PersistentBase@VObject@v8@@@2@H@Z (public: static void * __cdecl v8::Object::GetAlignedPointerFromInternalField(class v8::PersistentBase<class v8::Object> const &,int))
      227    ?GetData@Isolate@v8@@QAEPAXI@Z (public: void * __thiscall v8::Isolate::GetData(unsigned int))
      228    ?GetEmbedderData@Context@v8@@QAE?AV?$Local@VValue@v8@@@2@H@Z (public: class v8::Local<class v8::Value> __thiscall v8::Context::GetEmbedderData(int))
      229    ?GetExternalStringResource@String@v8@@QBEPAVExternalStringResource@12@XZ (public: class v8::String::ExternalStringResource * __thiscall v8::String::GetExternalStringResource(void)const )
      230    ?GetExternalStringResourceBase@String@v8@@QBEPAVExternalStringResourceBase@12@PAW4Encoding@12@@Z (public: class v8::String::ExternalStringResourceBase * __thiscall v8::String::GetExternalStringResourceBase(enum v8::String::Encoding *)const )
      231    ?GetId@Script@v8@@QAEHXZ (public: int __thiscall v8::Script::GetId(void))
      232    ?GetInternalField@Object@v8@@QAE?AV?$Local@VValue@v8@@@2@H@Z (public: class v8::Local<class v8::Value> __thiscall v8::Object::GetInternalField(int))
      233    ?GetIsolate@HandleScope@v8@@QBEPAVIsolate@2@XZ (public: class v8::Isolate * __thiscall v8::HandleScope::GetIsolate(void)const )
      234    ?GetNativeFunctionTemplate@Extension@v8@@UAE?AV?$Local@VFunctionTemplate@v8@@@2@PAVIsolate@2@V?$Local@VString@v8@@@2@@Z (public: virtual class v8::Local<class v8::FunctionTemplate> __thiscall v8::Extension::GetNativeFunctionTemplate(class v8::Isolate *,class v8::Local<class v8::String>))
      235    ?GetNumberOfDataSlots@Isolate@v8@@SAIXZ (public: static unsigned int __cdecl v8::Isolate::GetNumberOfDataSlots(void))
      236    ?InternalFieldCount@Object@v8@@SAHABV?$PersistentBase@VObject@v8@@@2@@Z (public: static int __cdecl v8::Object::InternalFieldCount(class v8::PersistentBase<class v8::Object> const &))
      237    ?IsDead@V8@v8@@SA_NXZ (public: static bool __cdecl v8::V8::IsDead(void))
      238    ?IsExecutionTerminating@V8@v8@@SA_NPAVIsolate@2@@Z (public: static bool __cdecl v8::V8::IsExecutionTerminating(class v8::Isolate *))
      239    ?IsNull@Value@v8@@QBE_NXZ (public: bool __thiscall v8::Value::IsNull(void)const )
      240    ?IsString@Value@v8@@QBE_NXZ (public: bool __thiscall v8::Value::IsString(void)const )
      241    ?IsUndefined@Value@v8@@QBE_NXZ (public: bool __thiscall v8::Value::IsUndefined(void)const )
      242    ?JSStackComparableAddress@TryCatch@v8@@SAPAXPAV12@@Z (public: static void * __cdecl v8::TryCatch::JSStackComparableAddress(class v8::TryCatch *))
      243    ?New@Boolean@v8@@SA?AV?$Local@VBoolean@v8@@@2@PAVIsolate@2@_N@Z (public: static class v8::Local<class v8::Boolean> __cdecl v8::Boolean::New(class v8::Isolate *,bool))
      244    ?NewInstance@Function@v8@@QBE?AV?$MaybeLocal@VObject@v8@@@2@V?$Local@VContext@v8@@@2@@Z (public: class v8::MaybeLocal<class v8::Object> __thiscall v8::Function::NewInstance(class v8::Local<class v8::Context>)const )
      245    ?QuickIsNull@Value@v8@@ABE_NXZ (private: bool __thiscall v8::Value::QuickIsNull(void)const )
      246    ?QuickIsString@Value@v8@@ABE_NXZ (private: bool __thiscall v8::Value::QuickIsString(void)const )
      247    ?QuickIsUndefined@Value@v8@@ABE_NXZ (private: bool __thiscall v8::Value::QuickIsUndefined(void)const )
      248    ?RemoveGCEpilogueCallback@V8@v8@@SAXP6AXW4GCType@2@W4GCCallbackFlags@2@@Z@Z (public: static void __cdecl v8::V8::RemoveGCEpilogueCallback(void (__cdecl*)(enum v8::GCType,enum v8::GCCallbackFlags)))
      249    ?RemoveGCPrologueCallback@V8@v8@@SAXP6AXW4GCType@2@W4GCCallbackFlags@2@@Z@Z (public: static void __cdecl v8::V8::RemoveGCPrologueCallback(void (__cdecl*)(enum v8::GCType,enum v8::GCCallbackFlags)))
      250    ?RemoveMemoryAllocationCallback@V8@v8@@SAXP6AXW4ObjectSpace@2@W4AllocationAction@2@H@Z@Z (public: static void __cdecl v8::V8::RemoveMemoryAllocationCallback(void (__cdecl*)(enum v8::ObjectSpace,enum v8::AllocationAction,int)))
      251    ?RemoveMessageListeners@V8@v8@@SAXP6AXV?$Local@VMessage@v8@@@2@V?$Local@VValue@v8@@@2@@Z@Z (public: static void __cdecl v8::V8::RemoveMessageListeners(void (__cdecl*)(class v8::Local<class v8::Message>,class v8::Local<class v8::Value>)))
      252    ?Set@Template@v8@@QAEXPAVIsolate@2@PBDV?$Local@VData@v8@@@2@@Z (public: void __thiscall v8::Template::Set(class v8::Isolate *,char const *,class v8::Local<class v8::Data>))
      253    ?SetAllowCodeGenerationFromStringsCallback@V8@v8@@SAXP6A_NV?$Local@VContext@v8@@@2@@Z@Z (public: static void __cdecl v8::V8::SetAllowCodeGenerationFromStringsCallback(bool (__cdecl*)(class v8::Local<class v8::Context>)))
      254    ?SetCaptureStackTraceForUncaughtExceptions@V8@v8@@SAX_NHW4StackTraceOptions@StackTrace@2@@Z (public: static void __cdecl v8::V8::SetCaptureStackTraceForUncaughtExceptions(bool,int,enum v8::StackTrace::StackTraceOptions))
      255    ?SetData@Isolate@v8@@QAEXIPAX@Z (public: void __thiscall v8::Isolate::SetData(unsigned int,void *))
      256    ?SetFailedAccessCheckCallbackFunction@V8@v8@@SAXP6AXV?$Local@VObject@v8@@@2@W4AccessType@2@V?$Local@VValue@v8@@@2@@Z@Z (public: static void __cdecl v8::V8::SetFailedAccessCheckCallbackFunction(void (__cdecl*)(class v8::Local<class v8::Object>,enum v8::AccessType,class v8::Local<class v8::Value>)))
      257    ?SetFatalErrorHandler@V8@v8@@SAXP6AXPBD0@Z@Z (public: static void __cdecl v8::V8::SetFatalErrorHandler(void (__cdecl*)(char const *,char const *)))
      258    ?SetIndexedPropertyHandler@ObjectTemplate@v8@@QAEXP6AXIABV?$PropertyCallbackInfo@VValue@v8@@@2@@ZP6AXIV?$Local@VValue@v8@@@2@0@ZP6AXIABV?$PropertyCallbackInfo@VInteger@v8@@@2@@ZP6AXIABV?$PropertyCallbackInfo@VBoolean@v8@@@2@@ZP6AXABV?$PropertyCallbackInfo@VArray@v8@@@2@@Z2@Z (public: void __thiscall v8::ObjectTemplate::SetIndexedPropertyHandler(void (__cdecl*)(unsigned int,class v8::PropertyCallbackInfo<class v8::Value> const &),void (__cdecl*)(unsigned int,class v8::Local<class v8::Value>,class v8::PropertyCallbackInfo<class v8::Value> const &),void (__cdecl*)(unsigned int,class v8::PropertyCallbackInfo<class v8::Integer> const &),void (__cdecl*)(unsigned int,class v8::PropertyCallbackInfo<class v8::Boolean> const &),void (__cdecl*)(class v8::PropertyCallbackInfo<class v8::Array> const &),class v8::Local<class v8::Value>))
      259    ?TerminateExecution@V8@v8@@SAXPAVIsolate@2@@Z (public: static void __cdecl v8::V8::TerminateExecution(class v8::Isolate *))
      260    ?ToBoolean@Value@v8@@QBE?AV?$Local@VBoolean@v8@@@2@XZ (public: class v8::Local<class v8::Boolean> __thiscall v8::Value::ToBoolean(void)const )
      261    ?ToDetailString@Value@v8@@QBE?AV?$Local@VString@v8@@@2@XZ (public: class v8::Local<class v8::String> __thiscall v8::Value::ToDetailString(void)const )
      262    ?ToInt32@Value@v8@@QBE?AV?$Local@VInt32@v8@@@2@XZ (public: class v8::Local<class v8::Int32> __thiscall v8::Value::ToInt32(void)const )
      263    ?ToInteger@Value@v8@@QBE?AV?$Local@VInteger@v8@@@2@XZ (public: class v8::Local<class v8::Integer> __thiscall v8::Value::ToInteger(void)const )
      264    ?ToNumber@Value@v8@@QBE?AV?$Local@VNumber@v8@@@2@XZ (public: class v8::Local<class v8::Number> __thiscall v8::Value::ToNumber(void)const )
      265    ?ToObject@Value@v8@@QBE?AV?$Local@VObject@v8@@@2@XZ (public: class v8::Local<class v8::Object> __thiscall v8::Value::ToObject(void)const )
      266    ?ToString@Value@v8@@QBE?AV?$Local@VString@v8@@@2@XZ (public: class v8::Local<class v8::String> __thiscall v8::Value::ToString(void)const )
      267    ?ToUint32@Value@v8@@QBE?AV?$Local@VUint32@v8@@@2@XZ (public: class v8::Local<class v8::Uint32> __thiscall v8::Value::ToUint32(void)const )
      268    ?VisitExternalResources@V8@v8@@SAXPAVExternalResourceVisitor@2@@Z (public: static void __cdecl v8::V8::VisitExternalResources(class v8::ExternalResourceVisitor *))
      269    ?VisitExternalString@ExternalResourceVisitor@v8@@UAEXV?$Local@VString@v8@@@2@@Z (public: virtual void __thiscall v8::ExternalResourceVisitor::VisitExternalString(class v8::Local<class v8::String>))
      270    ?VisitHandlesForPartialDependence@V8@v8@@SAXPAVIsolate@2@PAVPersistentHandleVisitor@2@@Z (public: static void __cdecl v8::V8::VisitHandlesForPartialDependence(class v8::Isolate *,class v8::PersistentHandleVisitor *))
      271    ?VisitHandlesWithClassIds@V8@v8@@SAXPAVIsolate@2@PAVPersistentHandleVisitor@2@@Z (public: static void __cdecl v8::V8::VisitHandlesWithClassIds(class v8::Isolate *,class v8::PersistentHandleVisitor *))
      272    ?VisitHandlesWithClassIds@V8@v8@@SAXPAVPersistentHandleVisitor@2@@Z (public: static void __cdecl v8::V8::VisitHandlesWithClassIds(class v8::PersistentHandleVisitor *))
      273    ?VisitPersistentHandle@PersistentHandleVisitor@v8@@UAEXPAV?$Persistent@VValue@v8@@V?$NonCopyablePersistentTraits@VValue@v8@@@2@@2@G@Z (public: virtual void __thiscall v8::PersistentHandleVisitor::VisitPersistentHandle(class v8::Persistent<class v8::Value,class v8::NonCopyablePersistentTraits<class v8::Value> > *,unsigned short))
      274    ?auto_enable@Extension@v8@@QAE_NXZ (public: bool __thiscall v8::Extension::auto_enable(void))
      275    ?begin@ExtensionConfiguration@v8@@QBEPAPBDXZ (public: char const * * __thiscall v8::ExtensionConfiguration::begin(void)const )
      276    ?code_range_size@ResourceConstraints@v8@@QBEIXZ (public: unsigned int __thiscall v8::ResourceConstraints::code_range_size(void)const )
      277    ?data@ExternalOneByteStringResourceImpl@v8@@UBEPBDXZ (public: virtual char const * __thiscall v8::ExternalOneByteStringResourceImpl::data(void)const )
      278    ?dependencies@Extension@v8@@QAEPAPBDXZ (public: char const * * __thiscall v8::Extension::dependencies(void))
      279    ?dependency_count@Extension@v8@@QAEHXZ (public: int __thiscall v8::Extension::dependency_count(void))
      280    ?end@ExtensionConfiguration@v8@@QBEPAPBDXZ (public: char const * * __thiscall v8::ExtensionConfiguration::end(void)const )
      281    ?heap_size_limit@HeapStatistics@v8@@QAEIXZ (public: unsigned int __thiscall v8::HeapStatistics::heap_size_limit(void))
      282    ?impl@StreamedSource@ScriptCompiler@v8@@QBEPAU1internal@3@XZ (public: struct v8::internal::StreamedSource * __thiscall v8::ScriptCompiler::StreamedSource::impl(void)const )
      283    ?kInternalFieldCount@ArrayBuffer@v8@@2HB (public: static int const v8::ArrayBuffer::kInternalFieldCount)
      284    ?kInternalFieldCount@ArrayBufferView@v8@@2HB (public: static int const v8::ArrayBufferView::kInternalFieldCount)
      285    ?kInternalFieldCount@SharedArrayBuffer@v8@@2HB (public: static int const v8::SharedArrayBuffer::kInternalFieldCount)
      286    ?kMaxLength@String@v8@@2HB (public: static int const v8::String::kMaxLength)
      287    ?kNoColumnInfo@Message@v8@@2HB (public: static int const v8::Message::kNoColumnInfo)
      288    ?kNoLineNumberInfo@Message@v8@@2HB (public: static int const v8::Message::kNoLineNumberInfo)
      289    ?kNoScriptId@UnboundScript@v8@@2HB (public: static int const v8::UnboundScript::kNoScriptId)
      290    ?kNoScriptIdInfo@Message@v8@@2HB (public: static int const v8::Message::kNoScriptIdInfo)
      291    ?length@ExternalOneByteStringResourceImpl@v8@@UBEIXZ (public: virtual unsigned int __thiscall v8::ExternalOneByteStringResourceImpl::length(void)const )
      292    ?length@Utf8Value@String@v8@@QBEHXZ (public: int __thiscall v8::String::Utf8Value::length(void)const )
      293    ?length@Value@String@v8@@QBEHXZ (public: int __thiscall v8::String::Value::length(void)const )
      294    ?max_available_threads@ResourceConstraints@v8@@QBEHXZ (public: int __thiscall v8::ResourceConstraints::max_available_threads(void)const )
      295    ?max_executable_size@ResourceConstraints@v8@@QBEHXZ (public: int __thiscall v8::ResourceConstraints::max_executable_size(void)const )
      296    ?max_old_space_size@ResourceConstraints@v8@@QBEHXZ (public: int __thiscall v8::ResourceConstraints::max_old_space_size(void)const )
      297    ?max_semi_space_size@ResourceConstraints@v8@@QBEHXZ (public: int __thiscall v8::ResourceConstraints::max_semi_space_size(void)const )
      298    ?name@Extension@v8@@QBEPBDXZ (public: char const * __thiscall v8::Extension::name(void)const )
      299    ?object_count@HeapObjectStatistics@v8@@QAEIXZ (public: unsigned int __thiscall v8::HeapObjectStatistics::object_count(void))
      300    ?object_size@HeapObjectStatistics@v8@@QAEIXZ (public: unsigned int __thiscall v8::HeapObjectStatistics::object_size(void))
      301    ?object_sub_type@HeapObjectStatistics@v8@@QAEPBDXZ (public: char const * __thiscall v8::HeapObjectStatistics::object_sub_type(void))
      302    ?object_type@HeapObjectStatistics@v8@@QAEPBDXZ (public: char const * __thiscall v8::HeapObjectStatistics::object_type(void))
      303    ?physical_space_size@HeapSpaceStatistics@v8@@QAEIXZ (public: unsigned int __thiscall v8::HeapSpaceStatistics::physical_space_size(void))
      304    ?set_auto_enable@Extension@v8@@QAEX_N@Z (public: void __thiscall v8::Extension::set_auto_enable(bool))
      305    ?set_code_range_size@ResourceConstraints@v8@@QAEXI@Z (public: void __thiscall v8::ResourceConstraints::set_code_range_size(unsigned int))
      306    ?set_max_available_threads@ResourceConstraints@v8@@QAEXH@Z (public: void __thiscall v8::ResourceConstraints::set_max_available_threads(int))
      307    ?set_max_executable_size@ResourceConstraints@v8@@QAEXH@Z (public: void __thiscall v8::ResourceConstraints::set_max_executable_size(int))
      308    ?set_max_old_space_size@ResourceConstraints@v8@@QAEXH@Z (public: void __thiscall v8::ResourceConstraints::set_max_old_space_size(int))
      309    ?set_max_semi_space_size@ResourceConstraints@v8@@QAEXH@Z (public: void __thiscall v8::ResourceConstraints::set_max_semi_space_size(int))
      310    ?set_stack_limit@ResourceConstraints@v8@@QAEXPAI@Z (public: void __thiscall v8::ResourceConstraints::set_stack_limit(unsigned int *))
      311    ?source@Extension@v8@@QBEPBVExternalOneByteStringResource@String@2@XZ (public: class v8::String::ExternalOneByteStringResource const * __thiscall v8::Extension::source(void)const )
      312    ?source_length@Extension@v8@@QBEIXZ (public: unsigned int __thiscall v8::Extension::source_length(void)const )
      313    ?space_available_size@HeapSpaceStatistics@v8@@QAEIXZ (public: unsigned int __thiscall v8::HeapSpaceStatistics::space_available_size(void))
      314    ?space_name@HeapSpaceStatistics@v8@@QAEPBDXZ (public: char const * __thiscall v8::HeapSpaceStatistics::space_name(void))
      315    ?space_size@HeapSpaceStatistics@v8@@QAEIXZ (public: unsigned int __thiscall v8::HeapSpaceStatistics::space_size(void))
      316    ?space_used_size@HeapSpaceStatistics@v8@@QAEIXZ (public: unsigned int __thiscall v8::HeapSpaceStatistics::space_used_size(void))
      317    ?stack_limit@ResourceConstraints@v8@@QBEPAIXZ (public: unsigned int * __thiscall v8::ResourceConstraints::stack_limit(void)const )
      318    ?total_available_size@HeapStatistics@v8@@QAEIXZ (public: unsigned int __thiscall v8::HeapStatistics::total_available_size(void))
      319    ?total_heap_size@HeapStatistics@v8@@QAEIXZ (public: unsigned int __thiscall v8::HeapStatistics::total_heap_size(void))
      320    ?total_heap_size_executable@HeapStatistics@v8@@QAEIXZ (public: unsigned int __thiscall v8::HeapStatistics::total_heap_size_executable(void))
      321    ?total_physical_size@HeapStatistics@v8@@QAEIXZ (public: unsigned int __thiscall v8::HeapStatistics::total_physical_size(void))
      322    ?used_heap_size@HeapStatistics@v8@@QAEIXZ (public: unsigned int __thiscall v8::HeapStatistics::used_heap_size(void))
      323    __register_bufferutil_
               exported name: _register_bufferutil_
